libclucene-core.so.1:_Z16_lucene_shutdownv
libclucene-core.so.1:_ZN12CLuceneError3setEiPKcb
libclucene-core.so.1:_ZN12CLuceneError3setEiPKwb
libclucene-core.so.1:_ZN12CLuceneError4whatEv
libclucene-core.so.1:_ZN12CLuceneError5twhatEv
libclucene-core.so.1:_ZN12CLuceneErrorC1ERKS_
libclucene-core.so.1:_ZN12CLuceneErrorC1EiPKcb
libclucene-core.so.1:_ZN12CLuceneErrorC1EiPKwb
libclucene-core.so.1:_ZN12CLuceneErrorC1Ev
libclucene-core.so.1:_ZN12CLuceneErrorC2ERKS_
libclucene-core.so.1:_ZN12CLuceneErrorC2EiPKcb
libclucene-core.so.1:_ZN12CLuceneErrorC2EiPKwb
libclucene-core.so.1:_ZN12CLuceneErrorC2Ev
libclucene-core.so.1:_ZN12CLuceneErrorD1Ev
libclucene-core.so.1:_ZN12CLuceneErrorD2Ev
libclucene-core.so.1:_ZN6lucene11queryParser10QueryToken8newTokenEi
libclucene-core.so.1:_ZN6lucene11queryParser10QueryTokenC1Ev
libclucene-core.so.1:_ZN6lucene11queryParser10QueryTokenC2Ev
libclucene-core.so.1:_ZN6lucene11queryParser10QueryTokenD1Ev
libclucene-core.so.1:_ZN6lucene11queryParser10QueryTokenD2Ev
libclucene-core.so.1:_ZN6lucene11queryParser11QueryParser11ConjunctionEv
libclucene-core.so.1:_ZN6lucene11queryParser11QueryParser12getNextTokenEv
libclucene-core.so.1:_ZN6lucene11queryParser11QueryParser13TopLevelQueryEPw
libclucene-core.so.1:_ZN6lucene11queryParser11QueryParser13_deleteTokensEv
libclucene-core.so.1:_ZN6lucene11queryParser11QueryParser13getFieldQueryEPKwPw
libclucene-core.so.1:_ZN6lucene11queryParser11QueryParser13getFieldQueryEPKwPwi
libclucene-core.so.1:_ZN6lucene11queryParser11QueryParser13getFuzzyQueryEPKwPwf
libclucene-core.so.1:_ZN6lucene11queryParser11QueryParser13getRangeQueryEPKwPwS4_b
libclucene-core.so.1:_ZN6lucene11queryParser11QueryParser13jj_scan_tokenEi
libclucene-core.so.1:_ZN6lucene11queryParser11QueryParser13setPhraseSlopEi
libclucene-core.so.1:_ZN6lucene11queryParser11QueryParser14getPrefixQueryEPKwPw
libclucene-core.so.1:_ZN6lucene11queryParser11QueryParser14setFuzzyMinSimEf
libclucene-core.so.1:_ZN6lucene11queryParser11QueryParser15getBooleanQueryERSt6vectorIPNS_6search13BooleanClauseESaIS5_EEb
libclucene-core.so.1:_ZN6lucene11queryParser11QueryParser15jj_rescan_tokenEv
libclucene-core.so.1:_ZN6lucene11queryParser11QueryParser16getWildcardQueryEPKwPw
libclucene-core.so.1:_ZN6lucene11queryParser11QueryParser16jj_consume_tokenEi
libclucene-core.so.1:_ZN6lucene11queryParser11QueryParser17discardEscapeCharEPwS2_
libclucene-core.so.1:_ZN6lucene11queryParser11QueryParser17setDateResolutionENS_8document9DateTools10ResolutionE
libclucene-core.so.1:_ZN6lucene11queryParser11QueryParser17setDateResolutionEPKwNS_8document9DateTools10ResolutionE
libclucene-core.so.1:_ZN6lucene11queryParser11QueryParser18jj_add_error_tokenEii
libclucene-core.so.1:_ZN6lucene11queryParser11QueryParser18setDefaultOperatorENS1_8OperatorE
libclucene-core.so.1:_ZN6lucene11queryParser11QueryParser19setUseOldRangeQueryEb
libclucene-core.so.1:_ZN6lucene11queryParser11QueryParser20setFuzzyPrefixLengthEi
libclucene-core.so.1:_ZN6lucene11queryParser11QueryParser22generateParseExceptionEv
libclucene-core.so.1:_ZN6lucene11queryParser11QueryParser23setAllowLeadingWildcardEb
libclucene-core.so.1:_ZN6lucene11queryParser11QueryParser24getParseExceptionMessageEPNS0_10QueryTokenEPNS_4util8CLVectorIPNS4_10ValueArrayIiEENS4_7Deletor6ObjectIS7_EEEEPPKw
libclucene-core.so.1:_ZN6lucene11queryParser11QueryParser25setLowercaseExpandedTermsEb
libclucene-core.so.1:_ZN6lucene11queryParser11QueryParser27setEnablePositionIncrementsEb
libclucene-core.so.1:_ZN6lucene11queryParser11QueryParser5_initEPNS0_10CharStreamE
libclucene-core.so.1:_ZN6lucene11queryParser11QueryParser5fTermEPKw
libclucene-core.so.1:_ZN6lucene11queryParser11QueryParser5parseEPKw
libclucene-core.so.1:_ZN6lucene11queryParser11QueryParser5parseEPKwS3_PNS_8analysis8AnalyzerE
libclucene-core.so.1:_ZN6lucene11queryParser11QueryParser6ReInitEPNS0_10CharStreamE
libclucene-core.so.1:_ZN6lucene11queryParser11QueryParser6ReInitEPNS0_23QueryParserTokenManagerE
libclucene-core.so.1:_ZN6lucene11queryParser11QueryParser6escapeEPKw
libclucene-core.so.1:_ZN6lucene11queryParser11QueryParser6fQueryEPw
libclucene-core.so.1:_ZN6lucene11queryParser11QueryParser6jj_2_1Ei
libclucene-core.so.1:_ZN6lucene11queryParser11QueryParser6jj_3_1Ev
libclucene-core.so.1:_ZN6lucene11queryParser11QueryParser7JJCallsC1Ev
libclucene-core.so.1:_ZN6lucene11queryParser11QueryParser7JJCallsC2Ev
libclucene-core.so.1:_ZN6lucene11queryParser11QueryParser7JJCallsD1Ev
libclucene-core.so.1:_ZN6lucene11queryParser11QueryParser7JJCallsD2Ev
libclucene-core.so.1:_ZN6lucene11queryParser11QueryParser7fClauseEPw
libclucene-core.so.1:_ZN6lucene11queryParser11QueryParser7jj_3R_2Ev
libclucene-core.so.1:_ZN6lucene11queryParser11QueryParser7jj_3R_3Ev
libclucene-core.so.1:_ZN6lucene11queryParser11QueryParser7jj_saveEii
libclucene-core.so.1:_ZN6lucene11queryParser11QueryParser8f_jj_ntkEv
libclucene-core.so.1:_ZN6lucene11queryParser11QueryParser8getTokenEi
libclucene-core.so.1:_ZN6lucene11queryParser11QueryParser8hexToIntEw
libclucene-core.so.1:_ZN6lucene11queryParser11QueryParser9ModifiersEv
libclucene-core.so.1:_ZN6lucene11queryParser11QueryParser9addClauseERSt6vectorIPNS_6search13BooleanClauseESaIS5_EEiiPNS3_5QueryE
libclucene-core.so.1:_ZN6lucene11queryParser11QueryParserC1EPKwPNS_8analysis8AnalyzerE
libclucene-core.so.1:_ZN6lucene11queryParser11QueryParserC1EPNS0_10CharStreamE
libclucene-core.so.1:_ZN6lucene11queryParser11QueryParserC1EPNS0_23QueryParserTokenManagerE
libclucene-core.so.1:_ZN6lucene11queryParser11QueryParserC2EPKwPNS_8analysis8AnalyzerE
libclucene-core.so.1:_ZN6lucene11queryParser11QueryParserC2EPNS0_10CharStreamE
libclucene-core.so.1:_ZN6lucene11queryParser11QueryParserC2EPNS0_23QueryParserTokenManagerE
libclucene-core.so.1:_ZN6lucene11queryParser11QueryParserD0Ev
libclucene-core.so.1:_ZN6lucene11queryParser11QueryParserD1Ev
libclucene-core.so.1:_ZN6lucene11queryParser11QueryParserD2Ev
libclucene-core.so.1:_ZN6lucene11queryParser20QueryParserConstants10addEscapesEPw
libclucene-core.so.1:_ZN6lucene11queryParser21MultiFieldQueryParser13getFieldQueryEPKwPwi
libclucene-core.so.1:_ZN6lucene11queryParser21MultiFieldQueryParser13getFuzzyQueryEPKwPwf
libclucene-core.so.1:_ZN6lucene11queryParser21MultiFieldQueryParser13getRangeQueryEPKwPwS4_b
libclucene-core.so.1:_ZN6lucene11queryParser21MultiFieldQueryParser14getPrefixQueryEPKwPw
libclucene-core.so.1:_ZN6lucene11queryParser21MultiFieldQueryParser16getWildcardQueryEPKwPw
libclucene-core.so.1:_ZN6lucene11queryParser21MultiFieldQueryParser5parseEPKwPS3_PKhPNS_8analysis8AnalyzerE
libclucene-core.so.1:_ZN6lucene11queryParser21MultiFieldQueryParser5parseEPPKwS4_PKhPNS_8analysis8AnalyzerE
libclucene-core.so.1:_ZN6lucene11queryParser21MultiFieldQueryParser5parseEPPKwS4_PNS_8analysis8AnalyzerE
libclucene-core.so.1:_ZN6lucene11queryParser21MultiFieldQueryParserC1EPPKwPNS_8analysis8AnalyzerEPNS_4util9CLHashMapIPwfNS8_7Compare5WCharENS8_6Equals5TCharENS8_7Deletor5DummyENSF_10DummyFloatEEE
libclucene-core.so.1:_ZN6lucene11queryParser21MultiFieldQueryParserC2EPPKwPNS_8analysis8AnalyzerEPNS_4util9CLHashMapIPwfNS8_7Compare5WCharENS8_6Equals5TCharENS8_7Deletor5DummyENSF_10DummyFloatEEE
libclucene-core.so.1:_ZN6lucene11queryParser21MultiFieldQueryParserD0Ev
libclucene-core.so.1:_ZN6lucene11queryParser21MultiFieldQueryParserD1Ev
libclucene-core.so.1:_ZN6lucene11queryParser21MultiFieldQueryParserD2Ev
libclucene-core.so.1:_ZN6lucene11queryParser23QueryParserTokenManager11jjAddStatesEii
libclucene-core.so.1:_ZN6lucene11queryParser23QueryParserTokenManager11jjCanMove_0Eiiill
libclucene-core.so.1:_ZN6lucene11queryParser23QueryParserTokenManager11jjCheckNAddEi
libclucene-core.so.1:_ZN6lucene11queryParser23QueryParserTokenManager11jjFillTokenEv
libclucene-core.so.1:_ZN6lucene11queryParser23QueryParserTokenManager11jjMoveNfa_0Eii
libclucene-core.so.1:_ZN6lucene11queryParser23QueryParserTokenManager11jjMoveNfa_1Eii
libclucene-core.so.1:_ZN6lucene11queryParser23QueryParserTokenManager11jjMoveNfa_2Eii
libclucene-core.so.1:_ZN6lucene11queryParser23QueryParserTokenManager11jjMoveNfa_3Eii
libclucene-core.so.1:_ZN6lucene11queryParser23QueryParserTokenManager11jjStopAtPosEii
libclucene-core.so.1:_ZN6lucene11queryParser23QueryParserTokenManager12ReInitRoundsEv
libclucene-core.so.1:_ZN6lucene11queryParser23QueryParserTokenManager12getNextTokenEv
libclucene-core.so.1:_ZN6lucene11queryParser23QueryParserTokenManager12jjStartNfa_1Eil
libclucene-core.so.1:_ZN6lucene11queryParser23QueryParserTokenManager12jjStartNfa_2Eil
libclucene-core.so.1:_ZN6lucene11queryParser23QueryParserTokenManager12jjStartNfa_3Eil
libclucene-core.so.1:_ZN6lucene11queryParser23QueryParserTokenManager15getLexicalErrorEbiiiPww
libclucene-core.so.1:_ZN6lucene11queryParser23QueryParserTokenManager17jjCheckNAddStatesEi
libclucene-core.so.1:_ZN6lucene11queryParser23QueryParserTokenManager17jjCheckNAddStatesEii
libclucene-core.so.1:_ZN6lucene11queryParser23QueryParserTokenManager20jjCheckNAddTwoStatesEii
libclucene-core.so.1:_ZN6lucene11queryParser23QueryParserTokenManager22jjStartNfaWithStates_1Eiii
libclucene-core.so.1:_ZN6lucene11queryParser23QueryParserTokenManager22jjStartNfaWithStates_2Eiii
libclucene-core.so.1:_ZN6lucene11queryParser23QueryParserTokenManager22jjStartNfaWithStates_3Eiii
libclucene-core.so.1:_ZN6lucene11queryParser23QueryParserTokenManager24jjStopStringLiteralDfa_1Eil
libclucene-core.so.1:_ZN6lucene11queryParser23QueryParserTokenManager24jjStopStringLiteralDfa_2Eil
libclucene-core.so.1:_ZN6lucene11queryParser23QueryParserTokenManager24jjStopStringLiteralDfa_3Eil
libclucene-core.so.1:_ZN6lucene11queryParser23QueryParserTokenManager25jjMoveStringLiteralDfa0_0Ev
libclucene-core.so.1:_ZN6lucene11queryParser23QueryParserTokenManager25jjMoveStringLiteralDfa0_1Ev
libclucene-core.so.1:_ZN6lucene11queryParser23QueryParserTokenManager25jjMoveStringLiteralDfa0_2Ev
libclucene-core.so.1:_ZN6lucene11queryParser23QueryParserTokenManager25jjMoveStringLiteralDfa0_3Ev
libclucene-core.so.1:_ZN6lucene11queryParser23QueryParserTokenManager25jjMoveStringLiteralDfa1_1El
libclucene-core.so.1:_ZN6lucene11queryParser23QueryParserTokenManager25jjMoveStringLiteralDfa1_2El
libclucene-core.so.1:_ZN6lucene11queryParser23QueryParserTokenManager6ReInitEPNS0_10CharStreamE
libclucene-core.so.1:_ZN6lucene11queryParser23QueryParserTokenManager6ReInitEPNS0_10CharStreamEi
libclucene-core.so.1:_ZN6lucene11queryParser23QueryParserTokenManager8SwitchToEi
libclucene-core.so.1:_ZN6lucene11queryParser23QueryParserTokenManagerC1EPNS0_10CharStreamEi
libclucene-core.so.1:_ZN6lucene11queryParser23QueryParserTokenManagerC2EPNS0_10CharStreamEi
libclucene-core.so.1:_ZN6lucene11queryParser23QueryParserTokenManagerD0Ev
libclucene-core.so.1:_ZN6lucene11queryParser23QueryParserTokenManagerD1Ev
libclucene-core.so.1:_ZN6lucene11queryParser23QueryParserTokenManagerD2Ev
libclucene-core.so.1:_ZN6lucene11queryParser6legacy10QueryToken3setENS2_5TypesE
libclucene-core.so.1:_ZN6lucene11queryParser6legacy10QueryToken3setEPKwNS2_5TypesE
libclucene-core.so.1:_ZN6lucene11queryParser6legacy10QueryToken3setEPKwiiNS2_5TypesE
libclucene-core.so.1:_ZN6lucene11queryParser6legacy10QueryTokenC1ENS2_5TypesE
libclucene-core.so.1:_ZN6lucene11queryParser6legacy10QueryTokenC1EPKwNS2_5TypesE
libclucene-core.so.1:_ZN6lucene11queryParser6legacy10QueryTokenC1EPKwiiNS2_5TypesE
libclucene-core.so.1:_ZN6lucene11queryParser6legacy10QueryTokenC1Ev
libclucene-core.so.1:_ZN6lucene11queryParser6legacy10QueryTokenC2ENS2_5TypesE
libclucene-core.so.1:_ZN6lucene11queryParser6legacy10QueryTokenC2EPKwNS2_5TypesE
libclucene-core.so.1:_ZN6lucene11queryParser6legacy10QueryTokenC2EPKwiiNS2_5TypesE
libclucene-core.so.1:_ZN6lucene11queryParser6legacy10QueryTokenC2Ev
libclucene-core.so.1:_ZN6lucene11queryParser6legacy10QueryTokenD0Ev
libclucene-core.so.1:_ZN6lucene11queryParser6legacy10QueryTokenD1Ev
libclucene-core.so.1:_ZN6lucene11queryParser6legacy10QueryTokenD2Ev
libclucene-core.so.1:_ZN6lucene11queryParser6legacy11QueryParser10MatchQueryEPKw
libclucene-core.so.1:_ZN6lucene11queryParser6legacy11QueryParser11MatchClauseEPKw
libclucene-core.so.1:_ZN6lucene11queryParser6legacy11QueryParser13MatchModifierEv
libclucene-core.so.1:_ZN6lucene11queryParser6legacy11QueryParser15MatchQueryTokenENS1_10QueryToken5TypesE
libclucene-core.so.1:_ZN6lucene11queryParser6legacy11QueryParser16MatchConjunctionEv
libclucene-core.so.1:_ZN6lucene11queryParser6legacy11QueryParser21ExtractAndDeleteTokenEv
libclucene-core.so.1:_ZN6lucene11queryParser6legacy11QueryParser5parseEPKw
libclucene-core.so.1:_ZN6lucene11queryParser6legacy11QueryParser5parseEPKwS4_PNS_8analysis8AnalyzerE
libclucene-core.so.1:_ZN6lucene11queryParser6legacy11QueryParser5parseEPNS_4util14BufferedReaderE
libclucene-core.so.1:_ZN6lucene11queryParser6legacy11QueryParser9MatchTermEPKw
libclucene-core.so.1:_ZN6lucene11queryParser6legacy11QueryParserC1EPKwPNS_8analysis8AnalyzerE
libclucene-core.so.1:_ZN6lucene11queryParser6legacy11QueryParserC2EPKwPNS_8analysis8AnalyzerE
libclucene-core.so.1:_ZN6lucene11queryParser6legacy11QueryParserD0Ev
libclucene-core.so.1:_ZN6lucene11queryParser6legacy11QueryParserD1Ev
libclucene-core.so.1:_ZN6lucene11queryParser6legacy11QueryParserD2Ev
libclucene-core.so.1:_ZN6lucene11queryParser6legacy15QueryParserBase13GetFieldQueryEPKwPw
libclucene-core.so.1:_ZN6lucene11queryParser6legacy15QueryParserBase13GetFieldQueryEPKwPwi
libclucene-core.so.1:_ZN6lucene11queryParser6legacy15QueryParserBase13GetFuzzyQueryEPKwPw
libclucene-core.so.1:_ZN6lucene11queryParser6legacy15QueryParserBase13GetRangeQueryEPKwPwS5_b
libclucene-core.so.1:_ZN6lucene11queryParser6legacy15QueryParserBase14GetPrefixQueryEPKwPw
libclucene-core.so.1:_ZN6lucene11queryParser6legacy15QueryParserBase15GetBooleanQueryERSt6vectorIPNS_6search13BooleanClauseESaIS6_EE
libclucene-core.so.1:_ZN6lucene11queryParser6legacy15QueryParserBase15GetBooleanQueryERSt6vectorIPNS_6search13BooleanClauseESaIS6_EEb
libclucene-core.so.1:_ZN6lucene11queryParser6legacy15QueryParserBase15ParseRangeQueryEPKwPwb
libclucene-core.so.1:_ZN6lucene11queryParser6legacy15QueryParserBase16GetWildcardQueryEPKwPw
libclucene-core.so.1:_ZN6lucene11queryParser6legacy15QueryParserBase18setDefaultOperatorEi
libclucene-core.so.1:_ZN6lucene11queryParser6legacy15QueryParserBase20throwParserExceptionEPKwwii
libclucene-core.so.1:_ZN6lucene11queryParser6legacy15QueryParserBase25setLowercaseExpandedTermsEb
libclucene-core.so.1:_ZN6lucene11queryParser6legacy15QueryParserBase9AddClauseERSt6vectorIPNS_6search13BooleanClauseESaIS6_EEiiPNS4_5QueryE
libclucene-core.so.1:_ZN6lucene11queryParser6legacy15QueryParserBaseC1EPNS_8analysis8AnalyzerE
libclucene-core.so.1:_ZN6lucene11queryParser6legacy15QueryParserBaseC2EPNS_8analysis8AnalyzerE
libclucene-core.so.1:_ZN6lucene11queryParser6legacy15QueryParserBaseD0Ev
libclucene-core.so.1:_ZN6lucene11queryParser6legacy15QueryParserBaseD1Ev
libclucene-core.so.1:_ZN6lucene11queryParser6legacy15QueryParserBaseD2Ev
libclucene-core.so.1:_ZN6lucene11queryParser6legacy21MultiFieldQueryParser13GetFieldQueryEPKwPw
libclucene-core.so.1:_ZN6lucene11queryParser6legacy21MultiFieldQueryParser13GetFieldQueryEPKwPwi
libclucene-core.so.1:_ZN6lucene11queryParser6legacy21MultiFieldQueryParser13GetFuzzyQueryEPKwPw
libclucene-core.so.1:_ZN6lucene11queryParser6legacy21MultiFieldQueryParser13GetRangeQueryEPKwPwS5_b
libclucene-core.so.1:_ZN6lucene11queryParser6legacy21MultiFieldQueryParser14GetPrefixQueryEPKwPw
libclucene-core.so.1:_ZN6lucene11queryParser6legacy21MultiFieldQueryParser16GetWildcardQueryEPKwPw
libclucene-core.so.1:_ZN6lucene11queryParser6legacy21MultiFieldQueryParser5parseEPKw
libclucene-core.so.1:_ZN6lucene11queryParser6legacy21MultiFieldQueryParser5parseEPKwPS4_PKhPNS_8analysis8AnalyzerE
libclucene-core.so.1:_ZN6lucene11queryParser6legacy21MultiFieldQueryParser5parseEPKwPS4_PNS_8analysis8AnalyzerE
libclucene-core.so.1:_ZN6lucene11queryParser6legacy21MultiFieldQueryParserC1EPPKwPNS_8analysis8AnalyzerEPNS_4util9CLHashMapIS4_fNS9_7Compare5WCharENS9_6Equals5TCharENS9_7Deletor5DummyENSF_10DummyFloatEEE
libclucene-core.so.1:_ZN6lucene11queryParser6legacy21MultiFieldQueryParserC2EPPKwPNS_8analysis8AnalyzerEPNS_4util9CLHashMapIS4_fNS9_7Compare5WCharENS9_6Equals5TCharENS9_7Deletor5DummyENSF_10DummyFloatEEE
libclucene-core.so.1:_ZN6lucene11queryParser6legacy21MultiFieldQueryParserD0Ev
libclucene-core.so.1:_ZN6lucene11queryParser6legacy21MultiFieldQueryParserD1Ev
libclucene-core.so.1:_ZN6lucene11queryParser6legacy21MultiFieldQueryParserD2Ev
libclucene-core.so.1:_ZN6lucene4util10FileReaderC1EPKcS3_i
libclucene-core.so.1:_ZN6lucene4util10FileReaderC1EPKcii
libclucene-core.so.1:_ZN6lucene4util10FileReaderC2EPKcS3_i
libclucene-core.so.1:_ZN6lucene4util10FileReaderC2EPKcii
libclucene-core.so.1:_ZN6lucene4util10FileReaderD0Ev
libclucene-core.so.1:_ZN6lucene4util10FileReaderD1Ev
libclucene-core.so.1:_ZN6lucene4util10FileReaderD2Ev
libclucene-core.so.1:_ZN6lucene4util11NamedObjectD0Ev
libclucene-core.so.1:_ZN6lucene4util11NamedObjectD1Ev
libclucene-core.so.1:_ZN6lucene4util11NamedObjectD2Ev
libclucene-core.so.1:_ZN6lucene4util12StringReader13setMinBufSizeEi
libclucene-core.so.1:_ZN6lucene4util12StringReader4initEPKwib
libclucene-core.so.1:_ZN6lucene4util12StringReader4readERPKwii
libclucene-core.so.1:_ZN6lucene4util12StringReader4sizeEv
libclucene-core.so.1:_ZN6lucene4util12StringReader4skipEl
libclucene-core.so.1:_ZN6lucene4util12StringReader5resetEl
libclucene-core.so.1:_ZN6lucene4util12StringReader8positionEv
libclucene-core.so.1:_ZN6lucene4util12StringReaderC1EPKwib
libclucene-core.so.1:_ZN6lucene4util12StringReaderC2EPKwib
libclucene-core.so.1:_ZN6lucene4util12StringReaderD0Ev
libclucene-core.so.1:_ZN6lucene4util12StringReaderD1Ev
libclucene-core.so.1:_ZN6lucene4util12StringReaderD2Ev
libclucene-core.so.1:_ZN6lucene4util13AStringReader13setMinBufSizeEi
libclucene-core.so.1:_ZN6lucene4util13AStringReader4readERPKaii
libclucene-core.so.1:_ZN6lucene4util13AStringReader4readERPKhii
libclucene-core.so.1:_ZN6lucene4util13AStringReader4sizeEv
libclucene-core.so.1:_ZN6lucene4util13AStringReader4skipEl
libclucene-core.so.1:_ZN6lucene4util13AStringReader5resetEl
libclucene-core.so.1:_ZN6lucene4util13AStringReader8positionEv
libclucene-core.so.1:_ZN6lucene4util13AStringReaderC1EPKci
libclucene-core.so.1:_ZN6lucene4util13AStringReaderC1EPcib
libclucene-core.so.1:_ZN6lucene4util13AStringReaderC2EPKci
libclucene-core.so.1:_ZN6lucene4util13AStringReaderC2EPcib
libclucene-core.so.1:_ZN6lucene4util13AStringReaderD0Ev
libclucene-core.so.1:_ZN6lucene4util13AStringReaderD1Ev
libclucene-core.so.1:_ZN6lucene4util13AStringReaderD2Ev
libclucene-core.so.1:_ZN6lucene4util14ScorerDocQueue11popNoResultEv
libclucene-core.so.1:_ZN6lucene4util14ScorerDocQueue15HeapedScorerDoc6adjustEv
libclucene-core.so.1:_ZN6lucene4util14ScorerDocQueue15HeapedScorerDocC1EPNS_6search6ScorerE
libclucene-core.so.1:_ZN6lucene4util14ScorerDocQueue15HeapedScorerDocC1EPNS_6search6ScorerEi
libclucene-core.so.1:_ZN6lucene4util14ScorerDocQueue15HeapedScorerDocC2EPNS_6search6ScorerE
libclucene-core.so.1:_ZN6lucene4util14ScorerDocQueue15HeapedScorerDocC2EPNS_6search6ScorerEi
libclucene-core.so.1:_ZN6lucene4util14ScorerDocQueue15HeapedScorerDocD0Ev
libclucene-core.so.1:_ZN6lucene4util14ScorerDocQueue15HeapedScorerDocD1Ev
libclucene-core.so.1:_ZN6lucene4util14ScorerDocQueue15HeapedScorerDocD2Ev
libclucene-core.so.1:_ZN6lucene4util14ScorerDocQueue18checkAdjustElsePopEb
libclucene-core.so.1:_ZN6lucene4util14ScorerDocQueue23topNextAndAdjustElsePopEv
libclucene-core.so.1:_ZN6lucene4util14ScorerDocQueue25topSkipToAndAdjustElsePopEi
libclucene-core.so.1:_ZN6lucene4util14ScorerDocQueue3popEv
libclucene-core.so.1:_ZN6lucene4util14ScorerDocQueue3putEPNS_6search6ScorerE
libclucene-core.so.1:_ZN6lucene4util14ScorerDocQueue3topEv
libclucene-core.so.1:_ZN6lucene4util14ScorerDocQueue4sizeEv
libclucene-core.so.1:_ZN6lucene4util14ScorerDocQueue5clearEv
libclucene-core.so.1:_ZN6lucene4util14ScorerDocQueue6insertEPNS_6search6ScorerE
libclucene-core.so.1:_ZN6lucene4util14ScorerDocQueue6topDocEv
libclucene-core.so.1:_ZN6lucene4util14ScorerDocQueue6upHeapEv
libclucene-core.so.1:_ZN6lucene4util14ScorerDocQueue8downHeapEv
libclucene-core.so.1:_ZN6lucene4util14ScorerDocQueue8topScoreEv
libclucene-core.so.1:_ZN6lucene4util14ScorerDocQueue9adjustTopEv
libclucene-core.so.1:_ZN6lucene4util14ScorerDocQueueC1Ei
libclucene-core.so.1:_ZN6lucene4util14ScorerDocQueueC2Ei
libclucene-core.so.1:_ZN6lucene4util14ScorerDocQueueD0Ev
libclucene-core.so.1:_ZN6lucene4util14ScorerDocQueueD1Ev
libclucene-core.so.1:_ZN6lucene4util14ScorerDocQueueD2Ev
libclucene-core.so.1:_ZN6lucene4util15AbstractDeletorD0Ev
libclucene-core.so.1:_ZN6lucene4util15AbstractDeletorD1Ev
libclucene-core.so.1:_ZN6lucene4util15AbstractDeletorD2Ev
libclucene-core.so.1:_ZN6lucene4util15FileInputStream13setMinBufSizeEi
libclucene-core.so.1:_ZN6lucene4util15FileInputStream4readERPKaii
libclucene-core.so.1:_ZN6lucene4util15FileInputStream4sizeEv
libclucene-core.so.1:_ZN6lucene4util15FileInputStream4skipEl
libclucene-core.so.1:_ZN6lucene4util15FileInputStream5resetEl
libclucene-core.so.1:_ZN6lucene4util15FileInputStream8positionEv
libclucene-core.so.1:_ZN6lucene4util15FileInputStreamC1EPKci
libclucene-core.so.1:_ZN6lucene4util15FileInputStreamC2EPKci
libclucene-core.so.1:_ZN6lucene4util15FileInputStreamD0Ev
libclucene-core.so.1:_ZN6lucene4util15FileInputStreamD1Ev
libclucene-core.so.1:_ZN6lucene4util15FileInputStreamD2Ev
libclucene-core.so.1:_ZN6lucene4util22FilteredBufferedReader13setMinBufSizeEi
libclucene-core.so.1:_ZN6lucene4util22FilteredBufferedReader4readERPKwii
libclucene-core.so.1:_ZN6lucene4util22FilteredBufferedReader4sizeEv
libclucene-core.so.1:_ZN6lucene4util22FilteredBufferedReader4skipEl
libclucene-core.so.1:_ZN6lucene4util22FilteredBufferedReader5resetEl
libclucene-core.so.1:_ZN6lucene4util22FilteredBufferedReader8positionEv
libclucene-core.so.1:_ZN6lucene4util22FilteredBufferedReaderC1EPNS0_6ReaderEb
libclucene-core.so.1:_ZN6lucene4util22FilteredBufferedReaderC2EPNS0_6ReaderEb
libclucene-core.so.1:_ZN6lucene4util22FilteredBufferedReaderD0Ev
libclucene-core.so.1:_ZN6lucene4util22FilteredBufferedReaderD1Ev
libclucene-core.so.1:_ZN6lucene4util22FilteredBufferedReaderD2Ev
libclucene-core.so.1:_ZN6lucene4util23SimpleInputStreamReader13setMinBufSizeEi
libclucene-core.so.1:_ZN6lucene4util23SimpleInputStreamReader4initEPNS0_8CLStreamIaEEi
libclucene-core.so.1:_ZN6lucene4util23SimpleInputStreamReader4readERPKwii
libclucene-core.so.1:_ZN6lucene4util23SimpleInputStreamReader4sizeEv
libclucene-core.so.1:_ZN6lucene4util23SimpleInputStreamReader4skipEl
libclucene-core.so.1:_ZN6lucene4util23SimpleInputStreamReader5resetEl
libclucene-core.so.1:_ZN6lucene4util23SimpleInputStreamReader8positionEv
libclucene-core.so.1:_ZN6lucene4util23SimpleInputStreamReaderC1EPNS0_8CLStreamIaEEi
libclucene-core.so.1:_ZN6lucene4util23SimpleInputStreamReaderC1Ev
libclucene-core.so.1:_ZN6lucene4util23SimpleInputStreamReaderC2EPNS0_8CLStreamIaEEi
libclucene-core.so.1:_ZN6lucene4util23SimpleInputStreamReaderC2Ev
libclucene-core.so.1:_ZN6lucene4util23SimpleInputStreamReaderD0Ev
libclucene-core.so.1:_ZN6lucene4util23SimpleInputStreamReaderD1Ev
libclucene-core.so.1:_ZN6lucene4util23SimpleInputStreamReaderD2Ev
libclucene-core.so.1:_ZN6lucene4util27FilteredBufferedInputStream13setMinBufSizeEi
libclucene-core.so.1:_ZN6lucene4util27FilteredBufferedInputStream4readERPKaii
libclucene-core.so.1:_ZN6lucene4util27FilteredBufferedInputStream4sizeEv
libclucene-core.so.1:_ZN6lucene4util27FilteredBufferedInputStream4skipEl
libclucene-core.so.1:_ZN6lucene4util27FilteredBufferedInputStream5resetEl
libclucene-core.so.1:_ZN6lucene4util27FilteredBufferedInputStream8positionEv
libclucene-core.so.1:_ZN6lucene4util27FilteredBufferedInputStreamC1EPNS0_8CLStreamIaEEb
libclucene-core.so.1:_ZN6lucene4util27FilteredBufferedInputStreamC2EPNS0_8CLStreamIaEEb
libclucene-core.so.1:_ZN6lucene4util27FilteredBufferedInputStreamD0Ev
libclucene-core.so.1:_ZN6lucene4util27FilteredBufferedInputStreamD1Ev
libclucene-core.so.1:_ZN6lucene4util27FilteredBufferedInputStreamD2Ev
libclucene-core.so.1:_ZN6lucene4util6BitSet10writeDgapsEPNS_5store11IndexOutputE
libclucene-core.so.1:_ZN6lucene4util6BitSet3setEib
libclucene-core.so.1:_ZN6lucene4util6BitSet5countEv
libclucene-core.so.1:_ZN6lucene4util6BitSet5writeEPNS_5store9DirectoryEPKc
libclucene-core.so.1:_ZN6lucene4util6BitSet8isSparseEv
libclucene-core.so.1:_ZN6lucene4util6BitSet8readBitsEPNS_5store10IndexInputE
libclucene-core.so.1:_ZN6lucene4util6BitSet9readDgapsEPNS_5store10IndexInputE
libclucene-core.so.1:_ZN6lucene4util6BitSet9writeBitsEPNS_5store11IndexOutputE
libclucene-core.so.1:_ZN6lucene4util6BitSetC1EPNS_5store9DirectoryEPKc
libclucene-core.so.1:_ZN6lucene4util6BitSetC1ERKS1_
libclucene-core.so.1:_ZN6lucene4util6BitSetC1Ei
libclucene-core.so.1:_ZN6lucene4util6BitSetC2EPNS_5store9DirectoryEPKc
libclucene-core.so.1:_ZN6lucene4util6BitSetC2ERKS1_
libclucene-core.so.1:_ZN6lucene4util6BitSetC2Ei
libclucene-core.so.1:_ZN6lucene4util6BitSetD0Ev
libclucene-core.so.1:_ZN6lucene4util6BitSetD1Ev
libclucene-core.so.1:_ZN6lucene4util6BitSetD2Ev
libclucene-core.so.1:_ZN6lucene4util7Compare4Char12getClassNameEv
libclucene-core.so.1:_ZN6lucene4util7Compare4Char9compareToEPNS0_11NamedObjectE
libclucene-core.so.1:_ZN6lucene4util7Compare4CharC1EPKc
libclucene-core.so.1:_ZN6lucene4util7Compare4CharC1Ev
libclucene-core.so.1:_ZN6lucene4util7Compare4CharC2EPKc
libclucene-core.so.1:_ZN6lucene4util7Compare4CharC2Ev
libclucene-core.so.1:_ZN6lucene4util7Compare5Float12getClassNameEv
libclucene-core.so.1:_ZN6lucene4util7Compare5Float9compareToEPNS0_11NamedObjectE
libclucene-core.so.1:_ZN6lucene4util7Compare5FloatC1Ef
libclucene-core.so.1:_ZN6lucene4util7Compare5FloatC2Ef
libclucene-core.so.1:_ZN6lucene4util7Compare5Int3212getClassNameEv
libclucene-core.so.1:_ZN6lucene4util7Compare5Int329compareToEPNS0_11NamedObjectE
libclucene-core.so.1:_ZN6lucene4util7Compare5Int32C1Ei
libclucene-core.so.1:_ZN6lucene4util7Compare5Int32C1Ev
libclucene-core.so.1:_ZN6lucene4util7Compare5Int32C2Ei
libclucene-core.so.1:_ZN6lucene4util7Compare5Int32C2Ev
libclucene-core.so.1:_ZN6lucene4util7Compare5WChar12getClassNameEv
libclucene-core.so.1:_ZN6lucene4util7Compare5WChar9compareToEPNS0_11NamedObjectE
libclucene-core.so.1:_ZN6lucene4util7Compare5WCharC1EPKw
libclucene-core.so.1:_ZN6lucene4util7Compare5WCharC1Ev
libclucene-core.so.1:_ZN6lucene4util7Compare5WCharC2EPKw
libclucene-core.so.1:_ZN6lucene4util7Compare5WCharC2Ev
libclucene-core.so.1:_ZN6lucene5index10FieldInfos10addIndexedEPPKwbbb
libclucene-core.so.1:_ZN6lucene5index10FieldInfos11addInternalEPKwbbbbbb
libclucene-core.so.1:_ZN6lucene5index10FieldInfos3addEPKNS_8document8DocumentE
libclucene-core.so.1:_ZN6lucene5index10FieldInfos3addEPKwbbbbbb
libclucene-core.so.1:_ZN6lucene5index10FieldInfos3addEPPKwbbbbbb
libclucene-core.so.1:_ZN6lucene5index10FieldInfos4readEPNS_5store10IndexInputE
libclucene-core.so.1:_ZN6lucene5index10FieldInfos5cloneEv
libclucene-core.so.1:_ZN6lucene5index10FieldInfosC1EPNS_5store9DirectoryEPKc
libclucene-core.so.1:_ZN6lucene5index10FieldInfosC1Ev
libclucene-core.so.1:_ZN6lucene5index10FieldInfosC2EPNS_5store9DirectoryEPKc
libclucene-core.so.1:_ZN6lucene5index10FieldInfosC2Ev
libclucene-core.so.1:_ZN6lucene5index10FieldInfosD0Ev
libclucene-core.so.1:_ZN6lucene5index10FieldInfosD1Ev
libclucene-core.so.1:_ZN6lucene5index10FieldInfosD2Ev
libclucene-core.so.1:_ZN6lucene5index11IndexReader10deleteTermEPNS0_4TermE
libclucene-core.so.1:_ZN6lucene5index11IndexReader10ensureOpenEv
libclucene-core.so.1:_ZN6lucene5index11IndexReader10getVersionEv
libclucene-core.so.1:_ZN6lucene5index11IndexReader11indexExistsEPKNS_5store9DirectoryE
libclucene-core.so.1:_ZN6lucene5index11IndexReader11indexExistsEPKc
libclucene-core.so.1:_ZN6lucene5index11IndexReader11isOptimizedEv
libclucene-core.so.1:_ZN6lucene5index11IndexReader11undeleteAllEv
libclucene-core.so.1:_ZN6lucene5index11IndexReader12getDirectoryEv
libclucene-core.so.1:_ZN6lucene5index11IndexReader12isLuceneFileEPKc
libclucene-core.so.1:_ZN6lucene5index11IndexReader12lastModifiedEPKc
libclucene-core.so.1:_ZN6lucene5index11IndexReader12lastModifiedEPNS_5store9DirectoryE
libclucene-core.so.1:_ZN6lucene5index11IndexReader13termPositionsEPNS0_4TermE
libclucene-core.so.1:_ZN6lucene5index11IndexReader14deleteDocumentEi
libclucene-core.so.1:_ZN6lucene5index11IndexReader15deleteDocumentsEPNS0_4TermE
libclucene-core.so.1:_ZN6lucene5index11IndexReader16acquireWriteLockEv
libclucene-core.so.1:_ZN6lucene5index11IndexReader16addCloseCallbackEPFvPS1_PvES3_
libclucene-core.so.1:_ZN6lucene5index11IndexReader17getCurrentVersionEPKc
libclucene-core.so.1:_ZN6lucene5index11IndexReader17getCurrentVersionEPNS_5store9DirectoryE
libclucene-core.so.1:_ZN6lucene5index11IndexReader24getTermInfosIndexDivisorEv
libclucene-core.so.1:_ZN6lucene5index11IndexReader24setTermInfosIndexDivisorEi
libclucene-core.so.1:_ZN6lucene5index11IndexReader4openEPKcbPNS0_19IndexDeletionPolicyE
libclucene-core.so.1:_ZN6lucene5index11IndexReader4openEPNS_5store9DirectoryEbPNS0_19IndexDeletionPolicyE
libclucene-core.so.1:_ZN6lucene5index11IndexReader5closeEv
libclucene-core.so.1:_ZN6lucene5index11IndexReader5flushEv
libclucene-core.so.1:_ZN6lucene5index11IndexReader6reopenEv
libclucene-core.so.1:_ZN6lucene5index11IndexReader6unlockEPKc
libclucene-core.so.1:_ZN6lucene5index11IndexReader6unlockEPNS_5store9DirectoryE
libclucene-core.so.1:_ZN6lucene5index11IndexReader7setNormEiPKwf
libclucene-core.so.1:_ZN6lucene5index11IndexReader7setNormEiPKwh
libclucene-core.so.1:_ZN6lucene5index11IndexReader8documentEi
libclucene-core.so.1:_ZN6lucene5index11IndexReader8documentEiPNS_8document8DocumentE
libclucene-core.so.1:_ZN6lucene5index11IndexReader8documentEiRNS_8document8DocumentE
libclucene-core.so.1:_ZN6lucene5index11IndexReader8hasNormsEPKw
libclucene-core.so.1:_ZN6lucene5index11IndexReader8isLockedEPKc
libclucene-core.so.1:_ZN6lucene5index11IndexReader8isLockedEPNS_5store9DirectoryE
libclucene-core.so.1:_ZN6lucene5index11IndexReader8termDocsEPNS0_4TermE
libclucene-core.so.1:_ZN6lucene5index11IndexReader9deleteDocEi
libclucene-core.so.1:_ZN6lucene5index11IndexReader9directoryEv
libclucene-core.so.1:_ZN6lucene5index11IndexReader9isCurrentEv
libclucene-core.so.1:_ZN6lucene5index11IndexReaderC1EPNS_5store9DirectoryE
libclucene-core.so.1:_ZN6lucene5index11IndexReaderC1Ev
libclucene-core.so.1:_ZN6lucene5index11IndexReaderC2EPNS_5store9DirectoryE
libclucene-core.so.1:_ZN6lucene5index11IndexReaderC2Ev
libclucene-core.so.1:_ZN6lucene5index11IndexReaderD0Ev
libclucene-core.so.1:_ZN6lucene5index11IndexReaderD1Ev
libclucene-core.so.1:_ZN6lucene5index11IndexReaderD2Ev
libclucene-core.so.1:_ZN6lucene5index11IndexWriter10_mergeInitEPNS0_11MergePolicy8OneMergeE
libclucene-core.so.1:_ZN6lucene5index11IndexWriter10addIndexesERNS_4util9ArrayBaseIPNS_5store9DirectoryEEE
libclucene-core.so.1:_ZN6lucene5index11IndexWriter10checkpointEv
libclucene-core.so.1:_ZN6lucene5index11IndexWriter10ensureOpenEv
libclucene-core.so.1:_ZN6lucene5index11IndexWriter10maybeMergeEb
libclucene-core.so.1:_ZN6lucene5index11IndexWriter10maybeMergeEib
libclucene-core.so.1:_ZN6lucene5index11IndexWriter10maybeMergeEv
libclucene-core.so.1:_ZN6lucene5index11IndexWriter10numRamDocsEv
libclucene-core.so.1:_ZN6lucene5index11IndexWriter11addDocumentEPNS_8document8DocumentEPNS_8analysis8AnalyzerE
libclucene-core.so.1:_ZN6lucene5index11IndexWriter11commitMergeEPNS0_11MergePolicy8OneMergeE
libclucene-core.so.1:_ZN6lucene5index11IndexWriter11getAnalyzerEv
libclucene-core.so.1:_ZN6lucene5index11IndexWriter11getDocCountEi
libclucene-core.so.1:_ZN6lucene5index11IndexWriter11mergeFinishEPNS0_11MergePolicy8OneMergeE
libclucene-core.so.1:_ZN6lucene5index11IndexWriter11mergeMiddleEPNS0_11MergePolicy8OneMergeE
libclucene-core.so.1:_ZN6lucene5index11IndexWriter12applyDeletesEb
libclucene-core.so.1:_ZN6lucene5index11IndexWriter12doAfterFlushEv
libclucene-core.so.1:_ZN6lucene5index11IndexWriter12finishMergesEb
libclucene-core.so.1:_ZN6lucene5index11IndexWriter12getDirectoryEv
libclucene-core.so.1:_ZN6lucene5index11IndexWriter12getNextMergeEv
libclucene-core.so.1:_ZN6lucene5index11IndexWriter12messageStateEv
libclucene-core.so.1:_ZN6lucene5index11IndexWriter12setMessageIDEv
libclucene-core.so.1:_ZN6lucene5index11IndexWriter12waitForCloseEv
libclucene-core.so.1:_ZN6lucene5index11IndexWriter13closeInternalEb
libclucene-core.so.1:_ZN6lucene5index11IndexWriter13getInfoStreamEv
libclucene-core.so.1:_ZN6lucene5index11IndexWriter13getSimilarityEv
libclucene-core.so.1:_ZN6lucene5index11IndexWriter13newestSegmentEv
libclucene-core.so.1:_ZN6lucene5index11IndexWriter13registerMergeEPNS0_11MergePolicy8OneMergeE
libclucene-core.so.1:_ZN6lucene5index11IndexWriter13setInfoStreamEPSo
libclucene-core.so.1:_ZN6lucene5index11IndexWriter13setSimilarityEPNS_6search10SimilarityE
libclucene-core.so.1:_ZN6lucene5index11IndexWriter14flushDocStoresEv
libclucene-core.so.1:_ZN6lucene5index11IndexWriter14getMergePolicyEv
libclucene-core.so.1:_ZN6lucene5index11IndexWriter14newSegmentNameB5cxx11Ev
libclucene-core.so.1:_ZN6lucene5index11IndexWriter14ramSizeInBytesEv
libclucene-core.so.1:_ZN6lucene5index11IndexWriter14setMergeFactorEi
libclucene-core.so.1:_ZN6lucene5index11IndexWriter14setMergePolicyEPNS0_11MergePolicyE
libclucene-core.so.1:_ZN6lucene5index11IndexWriter14updateDocumentEPNS0_4TermEPNS_8document8DocumentE
libclucene-core.so.1:_ZN6lucene5index11IndexWriter14updateDocumentEPNS0_4TermEPNS_8document8DocumentEPNS_8analysis8AnalyzerE
libclucene-core.so.1:_ZN6lucene5index11IndexWriter15deleteDocumentsEPKNS_4util9ArrayBaseIPNS0_4TermEEE
libclucene-core.so.1:_ZN6lucene5index11IndexWriter15deleteDocumentsEPNS0_4TermE
libclucene-core.so.1:_ZN6lucene5index11IndexWriter15getSegmentCountEv
libclucene-core.so.1:_ZN6lucene5index11IndexWriter15setMaxMergeDocsEi
libclucene-core.so.1:_ZN6lucene5index11IndexWriter16startTransactionEv
libclucene-core.so.1:_ZN6lucene5index11IndexWriter17addMergeExceptionEPNS0_11MergePolicy8OneMergeE
libclucene-core.so.1:_ZN6lucene5index11IndexWriter17commitTransactionEv
libclucene-core.so.1:_ZN6lucene5index11IndexWriter17getMaxFieldLengthEv
libclucene-core.so.1:_ZN6lucene5index11IndexWriter17getMergeSchedulerEv
libclucene-core.so.1:_ZN6lucene5index11IndexWriter17setMaxFieldLengthEi
libclucene-core.so.1:_ZN6lucene5index11IndexWriter17setMergeSchedulerEPNS0_14MergeSchedulerE
libclucene-core.so.1:_ZN6lucene5index11IndexWriter18getMaxBufferedDocsEv
libclucene-core.so.1:_ZN6lucene5index11IndexWriter18getRAMBufferSizeMBEv
libclucene-core.so.1:_ZN6lucene5index11IndexWriter18getUseCompoundFileEv
libclucene-core.so.1:_ZN6lucene5index11IndexWriter18setMaxBufferedDocsEi
libclucene-core.so.1:_ZN6lucene5index11IndexWriter18setRAMBufferSizeMBEf
libclucene-core.so.1:_ZN6lucene5index11IndexWriter18setUseCompoundFileEb
libclucene-core.so.1:_ZN6lucene5index11IndexWriter19decrefMergeSegmentsEPNS0_11MergePolicy8OneMergeE
libclucene-core.so.1:_ZN6lucene5index11IndexWriter19getWriteLockTimeoutEv
libclucene-core.so.1:_ZN6lucene5index11IndexWriter19pushMaxBufferedDocsEv
libclucene-core.so.1:_ZN6lucene5index11IndexWriter19rollbackTransactionEv
libclucene-core.so.1:_ZN6lucene5index11IndexWriter19setWriteLockTimeoutEl
libclucene-core.so.1:_ZN6lucene5index11IndexWriter19updatePendingMergesEib
libclucene-core.so.1:_ZN6lucene5index11IndexWriter20addIndexesNoOptimizeERNS_4util9ArrayBaseIPNS_5store9DirectoryEEE
libclucene-core.so.1:_ZN6lucene5index11IndexWriter20copyExternalSegmentsEv
libclucene-core.so.1:_ZN6lucene5index11IndexWriter20getDefaultInfoStreamEv
libclucene-core.so.1:_ZN6lucene5index11IndexWriter20getTermIndexIntervalEv
libclucene-core.so.1:_ZN6lucene5index11IndexWriter20resetMergeExceptionsEv
libclucene-core.so.1:_ZN6lucene5index11IndexWriter20setDefaultInfoStreamEPSo
libclucene-core.so.1:_ZN6lucene5index11IndexWriter20setTermIndexIntervalEi
libclucene-core.so.1:_ZN6lucene5index11IndexWriter21ensureContiguousMergeEPNS0_11MergePolicy8OneMergeE
libclucene-core.so.1:_ZN6lucene5index11IndexWriter21optimizeMergesPendingEv
libclucene-core.so.1:_ZN6lucene5index11IndexWriter23getNumBufferedDocumentsEv
libclucene-core.so.1:_ZN6lucene5index11IndexWriter25deletePartialSegmentsFileEv
libclucene-core.so.1:_ZN6lucene5index11IndexWriter25getMaxBufferedDeleteTermsEv
libclucene-core.so.1:_ZN6lucene5index11IndexWriter25getNumBufferedDeleteTermsEv
libclucene-core.so.1:_ZN6lucene5index11IndexWriter25setMaxBufferedDeleteTermsEi
libclucene-core.so.1:_ZN6lucene5index11IndexWriter26getBufferedDeleteTermsSizeEv
libclucene-core.so.1:_ZN6lucene5index11IndexWriter26getDefaultWriteLockTimeoutEv
libclucene-core.so.1:_ZN6lucene5index11IndexWriter26setDefaultWriteLockTimeoutEl
libclucene-core.so.1:_ZN6lucene5index11IndexWriter4initEPNS_5store9DirectoryEPNS_8analysis8AnalyzerEbPNS0_19IndexDeletionPolicyEb
libclucene-core.so.1:_ZN6lucene5index11IndexWriter4initEPNS_5store9DirectoryEPNS_8analysis8AnalyzerEbbPNS0_19IndexDeletionPolicyEb
libclucene-core.so.1:_ZN6lucene5index11IndexWriter5abortEv
libclucene-core.so.1:_ZN6lucene5index11IndexWriter5closeEb
libclucene-core.so.1:_ZN6lucene5index11IndexWriter5flushEbb
libclucene-core.so.1:_ZN6lucene5index11IndexWriter5flushEv
libclucene-core.so.1:_ZN6lucene5index11IndexWriter5mergeEPNS0_11MergePolicy8OneMergeE
libclucene-core.so.1:_ZN6lucene5index11IndexWriter6deinitEb
libclucene-core.so.1:_ZN6lucene5index11IndexWriter7doFlushEb
libclucene-core.so.1:_ZN6lucene5index11IndexWriter7messageENSt7__cxx1112basic_stringIcSt11char_traitsIcESaIcEEE
libclucene-core.so.1:_ZN6lucene5index11IndexWriter8Internal12applyDeletesERKNS_4util9CLHashMapIPNS0_4TermEPNS0_15DocumentsWriter3NumENS0_12Term_CompareENS0_11Term_EqualsENS3_7Deletor6ObjectIS5_EENSD_IS8_EEEEPNS0_11IndexReaderE
libclucene-core.so.1:_ZN6lucene5index11IndexWriter8Internal23applyDeletesSelectivelyERKNS_4util9CLHashMapIPNS0_4TermEPNS0_15DocumentsWriter3NumENS0_12Term_CompareENS0_11Term_EqualsENS3_7Deletor6ObjectIS5_EENSD_IS8_EEEERKSt6vectorIiSaIiEEPNS0_11IndexReaderE
libclucene-core.so.1:_ZN6lucene5index11IndexWriter8docCountEv
libclucene-core.so.1:_ZN6lucene5index11IndexWriter8optimizeEb
libclucene-core.so.1:_ZN6lucene5index11IndexWriter8optimizeEib
libclucene-core.so.1:_ZN6lucene5index11IndexWriter9mergeInitEPNS0_11MergePolicy8OneMergeE
libclucene-core.so.1:_ZN6lucene5index11IndexWriter9segStringB5cxx11Ev
libclucene-core.so.1:_ZN6lucene5index11IndexWriter9testPointEPKc
libclucene-core.so.1:_ZN6lucene5index11IndexWriterC1EPKcPNS_8analysis8AnalyzerEb
libclucene-core.so.1:_ZN6lucene5index11IndexWriterC1EPNS_5store9DirectoryEPNS_8analysis8AnalyzerEbb
libclucene-core.so.1:_ZN6lucene5index11IndexWriterC1EPNS_5store9DirectoryEbPNS_8analysis8AnalyzerEPNS0_19IndexDeletionPolicyEb
libclucene-core.so.1:_ZN6lucene5index11IndexWriterC1EPNS_5store9DirectoryEbPNS_8analysis8AnalyzerEbPNS0_19IndexDeletionPolicyEb
libclucene-core.so.1:_ZN6lucene5index11IndexWriterC2EPKcPNS_8analysis8AnalyzerEb
libclucene-core.so.1:_ZN6lucene5index11IndexWriterC2EPNS_5store9DirectoryEPNS_8analysis8AnalyzerEbb
libclucene-core.so.1:_ZN6lucene5index11IndexWriterC2EPNS_5store9DirectoryEbPNS_8analysis8AnalyzerEPNS0_19IndexDeletionPolicyEb
libclucene-core.so.1:_ZN6lucene5index11IndexWriterC2EPNS_5store9DirectoryEbPNS_8analysis8AnalyzerEbPNS0_19IndexDeletionPolicyEb
libclucene-core.so.1:_ZN6lucene5index11IndexWriterD0Ev
libclucene-core.so.1:_ZN6lucene5index11IndexWriterD1Ev
libclucene-core.so.1:_ZN6lucene5index11IndexWriterD2Ev
libclucene-core.so.1:_ZN6lucene5index11MergePolicy18MergeSpecification3addEPNS1_8OneMergeE
libclucene-core.so.1:_ZN6lucene5index11MergePolicy18MergeSpecification9segStringB5cxx11EPNS_5store9DirectoryE
libclucene-core.so.1:_ZN6lucene5index11MergePolicy18MergeSpecificationC1Ev
libclucene-core.so.1:_ZN6lucene5index11MergePolicy18MergeSpecificationC2Ev
libclucene-core.so.1:_ZN6lucene5index11MergePolicy18MergeSpecificationD1Ev
libclucene-core.so.1:_ZN6lucene5index11MergePolicy18MergeSpecificationD2Ev
libclucene-core.so.1:_ZN6lucene5index11MergePolicy8OneMerge12checkAbortedEPNS_5store9DirectoryE
libclucene-core.so.1:_ZN6lucene5index11MergePolicy8OneMerge12getClassNameEv
libclucene-core.so.1:_ZN6lucene5index11MergePolicy8OneMerge12getExceptionEv
libclucene-core.so.1:_ZN6lucene5index11MergePolicy8OneMerge12setExceptionER12CLuceneError
libclucene-core.so.1:_ZN6lucene5index11MergePolicy8OneMerge5abortEv
libclucene-core.so.1:_ZN6lucene5index11MergePolicy8OneMerge9isAbortedEv
libclucene-core.so.1:_ZN6lucene5index11MergePolicy8OneMergeC1EPNS0_12SegmentInfosEb
libclucene-core.so.1:_ZN6lucene5index11MergePolicy8OneMergeC2EPNS0_12SegmentInfosEb
libclucene-core.so.1:_ZN6lucene5index11MergePolicy8OneMergeD0Ev
libclucene-core.so.1:_ZN6lucene5index11MergePolicy8OneMergeD1Ev
libclucene-core.so.1:_ZN6lucene5index11MergePolicy8OneMergeD2Ev
libclucene-core.so.1:_ZN6lucene5index11MultiReader10getVersionEv
libclucene-core.so.1:_ZN6lucene5index11MultiReader11isOptimizedEv
libclucene-core.so.1:_ZN6lucene5index11MultiReader12getClassNameEv
libclucene-core.so.1:_ZN6lucene5index11MultiReader13doUndeleteAllEv
libclucene-core.so.1:_ZN6lucene5index11MultiReader13getFieldNamesENS0_11IndexReader11FieldOptionERNS_4util8CLVectorIPwNS4_7Deletor7tcArrayEEE
libclucene-core.so.1:_ZN6lucene5index11MultiReader13termPositionsEv
libclucene-core.so.1:_ZN6lucene5index11MultiReader17getTermFreqVectorEiPKw
libclucene-core.so.1:_ZN6lucene5index11MultiReader17getTermFreqVectorEiPKwPNS0_16TermVectorMapperE
libclucene-core.so.1:_ZN6lucene5index11MultiReader17getTermFreqVectorEiPNS0_16TermVectorMapperE
libclucene-core.so.1:_ZN6lucene5index11MultiReader18getTermFreqVectorsEi
libclucene-core.so.1:_ZN6lucene5index11MultiReader4initEPKNS_4util9ArrayBaseIPNS0_11IndexReaderEEEb
libclucene-core.so.1:_ZN6lucene5index11MultiReader5normsEPKw
libclucene-core.so.1:_ZN6lucene5index11MultiReader5normsEPKwPh
libclucene-core.so.1:_ZN6lucene5index11MultiReader5termsEPKNS0_4TermE
libclucene-core.so.1:_ZN6lucene5index11MultiReader5termsEv
libclucene-core.so.1:_ZN6lucene5index11MultiReader6reopenEv
libclucene-core.so.1:_ZN6lucene5index11MultiReader7doCloseEv
libclucene-core.so.1:_ZN6lucene5index11MultiReader7docFreqEPKNS0_4TermE
libclucene-core.so.1:_ZN6lucene5index11MultiReader7numDocsEv
libclucene-core.so.1:_ZN6lucene5index11MultiReader8doCommitEv
libclucene-core.so.1:_ZN6lucene5index11MultiReader8doDeleteEi
libclucene-core.so.1:_ZN6lucene5index11MultiReader8documentEiRNS_8document8DocumentEPKNS2_13FieldSelectorE
libclucene-core.so.1:_ZN6lucene5index11MultiReader8hasNormsEPKw
libclucene-core.so.1:_ZN6lucene5index11MultiReader8termDocsEv
libclucene-core.so.1:_ZN6lucene5index11MultiReader9doSetNormEiPKwh
libclucene-core.so.1:_ZN6lucene5index11MultiReader9fakeNormsEv
libclucene-core.so.1:_ZN6lucene5index11MultiReader9isCurrentEv
libclucene-core.so.1:_ZN6lucene5index11MultiReader9isDeletedEi
libclucene-core.so.1:_ZN6lucene5index11MultiReaderC1EPKNS_4util9ArrayBaseIPNS0_11IndexReaderEEEb
libclucene-core.so.1:_ZN6lucene5index11MultiReaderC2EPKNS_4util9ArrayBaseIPNS0_11IndexReaderEEEb
libclucene-core.so.1:_ZN6lucene5index11MultiReaderD0Ev
libclucene-core.so.1:_ZN6lucene5index11MultiReaderD1Ev
libclucene-core.so.1:_ZN6lucene5index11MultiReaderD2Ev
libclucene-core.so.1:_ZN6lucene5index13IndexModifier11addDocumentEPNS_8document8DocumentEPNS_8analysis8AnalyzerE
libclucene-core.so.1:_ZN6lucene5index13IndexModifier12getDirectoryEv
libclucene-core.so.1:_ZN6lucene5index13IndexModifier14deleteDocumentEi
libclucene-core.so.1:_ZN6lucene5index13IndexModifier14getMergeFactorEv
libclucene-core.so.1:_ZN6lucene5index13IndexModifier14setMergeFactorEi
libclucene-core.so.1:_ZN6lucene5index13IndexModifier15deleteDocumentsEPNS0_4TermE
libclucene-core.so.1:_ZN6lucene5index13IndexModifier17createIndexReaderEv
libclucene-core.so.1:_ZN6lucene5index13IndexModifier17createIndexWriterEb
libclucene-core.so.1:_ZN6lucene5index13IndexModifier17getMaxFieldLengthEv
libclucene-core.so.1:_ZN6lucene5index13IndexModifier17setMaxFieldLengthEi
libclucene-core.so.1:_ZN6lucene5index13IndexModifier18getMaxBufferedDocsEv
libclucene-core.so.1:_ZN6lucene5index13IndexModifier18getUseCompoundFileEv
libclucene-core.so.1:_ZN6lucene5index13IndexModifier18setMaxBufferedDocsEi
libclucene-core.so.1:_ZN6lucene5index13IndexModifier18setUseCompoundFileEb
libclucene-core.so.1:_ZN6lucene5index13IndexModifier4initEPNS_5store9DirectoryEPNS_8analysis8AnalyzerEb
libclucene-core.so.1:_ZN6lucene5index13IndexModifier5closeEv
libclucene-core.so.1:_ZN6lucene5index13IndexModifier5flushEv
libclucene-core.so.1:_ZN6lucene5index13IndexModifier5termsEPNS0_4TermE
libclucene-core.so.1:_ZN6lucene5index13IndexModifier8docCountEv
libclucene-core.so.1:_ZN6lucene5index13IndexModifier8documentEi
libclucene-core.so.1:_ZN6lucene5index13IndexModifier8documentEiPNS_8document8DocumentE
libclucene-core.so.1:_ZN6lucene5index13IndexModifier8documentEiRNS_8document8DocumentE
libclucene-core.so.1:_ZN6lucene5index13IndexModifier8optimizeEv
libclucene-core.so.1:_ZN6lucene5index13IndexModifier8termDocsEPNS0_4TermE
libclucene-core.so.1:_ZN6lucene5index13IndexModifierC1EPKcPNS_8analysis8AnalyzerEb
libclucene-core.so.1:_ZN6lucene5index13IndexModifierC1EPNS_5store9DirectoryEPNS_8analysis8AnalyzerEb
libclucene-core.so.1:_ZN6lucene5index13IndexModifierC2EPKcPNS_8analysis8AnalyzerEb
libclucene-core.so.1:_ZN6lucene5index13IndexModifierC2EPNS_5store9DirectoryEPNS_8analysis8AnalyzerEb
libclucene-core.so.1:_ZN6lucene5index13IndexModifierD0Ev
libclucene-core.so.1:_ZN6lucene5index13IndexModifierD1Ev
libclucene-core.so.1:_ZN6lucene5index13IndexModifierD2Ev
libclucene-core.so.1:_ZN6lucene5index13TermPositionsD0Ev
libclucene-core.so.1:_ZN6lucene5index13TermPositionsD1Ev
libclucene-core.so.1:_ZN6lucene5index13TermPositionsD2Ev
libclucene-core.so.1:_ZN6lucene5index14IndexFileNames14isDocStoreFileEPKc
libclucene-core.so.1:_ZN6lucene5index14IndexFileNames16INDEX_EXTENSIONSEv
libclucene-core.so.1:_ZN6lucene5index14IndexFileNames17VECTOR_EXTENSIONSEv
libclucene-core.so.1:_ZN6lucene5index14IndexFileNames19COMPOUND_EXTENSIONSEv
libclucene-core.so.1:_ZN6lucene5index14IndexFileNames22STORE_INDEX_EXTENSIONSEv
libclucene-core.so.1:_ZN6lucene5index14IndexFileNames22fileNameFromGenerationB5cxx11EPKcS3_l
libclucene-core.so.1:_ZN6lucene5index14IndexFileNames26NON_STORE_INDEX_EXTENSIONSEv
libclucene-core.so.1:_ZN6lucene5index14IndexFileNames33INDEX_EXTENSIONS_IN_COMPOUND_FILEEv
libclucene-core.so.1:_ZN6lucene5index14LogMergePolicy10findMergesEPNS0_12SegmentInfosEPNS0_11IndexWriterE
libclucene-core.so.1:_ZN6lucene5index14LogMergePolicy11isOptimizedEPNS0_11IndexWriterEPNS0_11SegmentInfoE
libclucene-core.so.1:_ZN6lucene5index14LogMergePolicy11isOptimizedEPNS0_12SegmentInfosEPNS0_11IndexWriterEiRSt6vectorIPNS0_11SegmentInfoESaIS8_EE
libclucene-core.so.1:_ZN6lucene5index14LogMergePolicy12getClassNameEv
libclucene-core.so.1:_ZN6lucene5index14LogMergePolicy14getMergeFactorEv
libclucene-core.so.1:_ZN6lucene5index14LogMergePolicy14setMergeFactorEi
libclucene-core.so.1:_ZN6lucene5index14LogMergePolicy15getMaxMergeDocsEv
libclucene-core.so.1:_ZN6lucene5index14LogMergePolicy15setMaxMergeDocsEi
libclucene-core.so.1:_ZN6lucene5index14LogMergePolicy15useCompoundFileEPNS0_12SegmentInfosEPNS0_11SegmentInfoE
libclucene-core.so.1:_ZN6lucene5index14LogMergePolicy18getUseCompoundFileEv
libclucene-core.so.1:_ZN6lucene5index14LogMergePolicy18setUseCompoundFileEb
libclucene-core.so.1:_ZN6lucene5index14LogMergePolicy19useCompoundDocStoreEPNS0_12SegmentInfosE
libclucene-core.so.1:_ZN6lucene5index14LogMergePolicy21findMergesForOptimizeEPNS0_12SegmentInfosEPNS0_11IndexWriterEiRSt6vectorIPNS0_11SegmentInfoESaIS8_EE
libclucene-core.so.1:_ZN6lucene5index14LogMergePolicy22getUseCompoundDocStoreEv
libclucene-core.so.1:_ZN6lucene5index14LogMergePolicy22setUseCompoundDocStoreEb
libclucene-core.so.1:_ZN6lucene5index14LogMergePolicy5closeEv
libclucene-core.so.1:_ZN6lucene5index14LogMergePolicy7messageERKNSt7__cxx1112basic_stringIcSt11char_traitsIcESaIcEEE
libclucene-core.so.1:_ZN6lucene5index14LogMergePolicyC1Ev
libclucene-core.so.1:_ZN6lucene5index14LogMergePolicyC2Ev
libclucene-core.so.1:_ZN6lucene5index16IndexCommitPointD0Ev
libclucene-core.so.1:_ZN6lucene5index16IndexCommitPointD1Ev
libclucene-core.so.1:_ZN6lucene5index16IndexCommitPointD2Ev
libclucene-core.so.1:_ZN6lucene5index16TermVectorMapper17setDocumentNumberEi
libclucene-core.so.1:_ZN6lucene5index16TermVectorMapperC1Ebb
libclucene-core.so.1:_ZN6lucene5index16TermVectorMapperC1Ev
libclucene-core.so.1:_ZN6lucene5index16TermVectorMapperC2Ebb
libclucene-core.so.1:_ZN6lucene5index16TermVectorMapperC2Ev
libclucene-core.so.1:_ZN6lucene5index17LogDocMergePolicy12getClassNameEv
libclucene-core.so.1:_ZN6lucene5index17LogDocMergePolicy15getMinMergeDocsEv
libclucene-core.so.1:_ZN6lucene5index17LogDocMergePolicy15setMinMergeDocsEi
libclucene-core.so.1:_ZN6lucene5index17LogDocMergePolicy4sizeEPNS0_11SegmentInfoE
libclucene-core.so.1:_ZN6lucene5index17LogDocMergePolicyC1Ev
libclucene-core.so.1:_ZN6lucene5index17LogDocMergePolicyC2Ev
libclucene-core.so.1:_ZN6lucene5index17TermVectorsReader14readTermVectorEPKwlPNS0_16TermVectorMapperE
libclucene-core.so.1:_ZN6lucene5index17TermVectorsReader15readTermVectorsEPPKwPKliPNS0_16TermVectorMapperE
libclucene-core.so.1:_ZN6lucene5index17TermVectorsReader15readTermVectorsEiPPKwPKli
libclucene-core.so.1:_ZN6lucene5index17TermVectorsReader16checkValidFormatEPNS_5store10IndexInputE
libclucene-core.so.1:_ZN6lucene5index17TermVectorsReader3getEi
libclucene-core.so.1:_ZN6lucene5index17TermVectorsReader3getEiPKw
libclucene-core.so.1:_ZN6lucene5index17TermVectorsReader3getEiPKwPNS0_16TermVectorMapperE
libclucene-core.so.1:_ZN6lucene5index17TermVectorsReader3getEiPNS0_16TermVectorMapperE
libclucene-core.so.1:_ZN6lucene5index17TermVectorsReader5closeEv
libclucene-core.so.1:_ZN6lucene5index17TermVectorsReaderC1EPNS_5store9DirectoryEPKcPNS0_10FieldInfosEiii
libclucene-core.so.1:_ZN6lucene5index17TermVectorsReaderC1ERKS1_
libclucene-core.so.1:_ZN6lucene5index17TermVectorsReaderC2EPNS_5store9DirectoryEPKcPNS0_10FieldInfosEiii
libclucene-core.so.1:_ZN6lucene5index17TermVectorsReaderC2ERKS1_
libclucene-core.so.1:_ZN6lucene5index17TermVectorsReaderD0Ev
libclucene-core.so.1:_ZN6lucene5index17TermVectorsReaderD1Ev
libclucene-core.so.1:_ZN6lucene5index17TermVectorsReaderD2Ev
libclucene-core.so.1:_ZN6lucene5index19IndexDeletionPolicyD0Ev
libclucene-core.so.1:_ZN6lucene5index19IndexDeletionPolicyD1Ev
libclucene-core.so.1:_ZN6lucene5index19IndexDeletionPolicyD2Ev
libclucene-core.so.1:_ZN6lucene5index20DirectoryIndexReader10getVersionEv
libclucene-core.so.1:_ZN6lucene5index20DirectoryIndexReader11isOptimizedEv
libclucene-core.so.1:_ZN6lucene5index20DirectoryIndexReader16acquireWriteLockEv
libclucene-core.so.1:_ZN6lucene5index20DirectoryIndexReader17setDeletionPolicyEPNS0_19IndexDeletionPolicyE
libclucene-core.so.1:_ZN6lucene5index20DirectoryIndexReader4initEPNS_5store9DirectoryEPNS0_12SegmentInfosEb
libclucene-core.so.1:_ZN6lucene5index20DirectoryIndexReader6reopenEv
libclucene-core.so.1:_ZN6lucene5index20DirectoryIndexReader7doCloseEv
libclucene-core.so.1:_ZN6lucene5index20DirectoryIndexReader8doCommitEv
libclucene-core.so.1:_ZN6lucene5index20DirectoryIndexReader9directoryEv
libclucene-core.so.1:_ZN6lucene5index20DirectoryIndexReader9isCurrentEv
libclucene-core.so.1:_ZN6lucene5index20DirectoryIndexReaderC1Ev
libclucene-core.so.1:_ZN6lucene5index20DirectoryIndexReaderC2Ev
libclucene-core.so.1:_ZN6lucene5index20DirectoryIndexReaderD0Ev
libclucene-core.so.1:_ZN6lucene5index20DirectoryIndexReaderD1Ev
libclucene-core.so.1:_ZN6lucene5index20DirectoryIndexReaderD2Ev
libclucene-core.so.1:_ZN6lucene5index20SerialMergeScheduler12getClassNameEv
libclucene-core.so.1:_ZN6lucene5index20SerialMergeScheduler5closeEv
libclucene-core.so.1:_ZN6lucene5index20SerialMergeScheduler5mergeEPNS0_11IndexWriterE
libclucene-core.so.1:_ZN6lucene5index20TermVectorOffsetInfo12setEndOffsetEi
libclucene-core.so.1:_ZN6lucene5index20TermVectorOffsetInfo14setStartOffsetEi
libclucene-core.so.1:_ZN6lucene5index20TermVectorOffsetInfo6equalsEPS1_
libclucene-core.so.1:_ZN6lucene5index20TermVectorOffsetInfoC1Eii
libclucene-core.so.1:_ZN6lucene5index20TermVectorOffsetInfoC1Ev
libclucene-core.so.1:_ZN6lucene5index20TermVectorOffsetInfoC2Eii
libclucene-core.so.1:_ZN6lucene5index20TermVectorOffsetInfoC2Ev
libclucene-core.so.1:_ZN6lucene5index20TermVectorOffsetInfoD1Ev
libclucene-core.so.1:_ZN6lucene5index20TermVectorOffsetInfoD2Ev
libclucene-core.so.1:_ZN6lucene5index21MultipleTermPositions10getPayloadEPh
libclucene-core.so.1:_ZN6lucene5index21MultipleTermPositions12__asTermDocsEv
libclucene-core.so.1:_ZN6lucene5index21MultipleTermPositions12nextPositionEv
libclucene-core.so.1:_ZN6lucene5index21MultipleTermPositions17__asTermPositionsEv
libclucene-core.so.1:_ZN6lucene5index21MultipleTermPositions4nextEv
libclucene-core.so.1:_ZN6lucene5index21MultipleTermPositions4readEPiS2_i
libclucene-core.so.1:_ZN6lucene5index21MultipleTermPositions4seekEPNS0_4TermE
libclucene-core.so.1:_ZN6lucene5index21MultipleTermPositions4seekEPNS0_8TermEnumE
libclucene-core.so.1:_ZN6lucene5index21MultipleTermPositions5closeEv
libclucene-core.so.1:_ZN6lucene5index21MultipleTermPositions6skipToEi
libclucene-core.so.1:_ZN6lucene5index21MultipleTermPositionsC1EPNS0_11IndexReaderEPKNS_4util9ArrayBaseIPNS0_4TermEEE
libclucene-core.so.1:_ZN6lucene5index21MultipleTermPositionsC2EPNS0_11IndexReaderEPKNS_4util9ArrayBaseIPNS0_4TermEEE
libclucene-core.so.1:_ZN6lucene5index21MultipleTermPositionsD0Ev
libclucene-core.so.1:_ZN6lucene5index21MultipleTermPositionsD1Ev
libclucene-core.so.1:_ZN6lucene5index21MultipleTermPositionsD2Ev
libclucene-core.so.1:_ZN6lucene5index22LogByteSizeMergePolicy12getClassNameEv
libclucene-core.so.1:_ZN6lucene5index22LogByteSizeMergePolicy13getMaxMergeMBEv
libclucene-core.so.1:_ZN6lucene5index22LogByteSizeMergePolicy13getMinMergeMBEv
libclucene-core.so.1:_ZN6lucene5index22LogByteSizeMergePolicy13setMaxMergeMBEf
libclucene-core.so.1:_ZN6lucene5index22LogByteSizeMergePolicy13setMinMergeMBEf
libclucene-core.so.1:_ZN6lucene5index22LogByteSizeMergePolicy4sizeEPNS0_11SegmentInfoE
libclucene-core.so.1:_ZN6lucene5index22LogByteSizeMergePolicyC1Ev
libclucene-core.so.1:_ZN6lucene5index22LogByteSizeMergePolicyC2Ev
libclucene-core.so.1:_ZN6lucene5index32KeepOnlyLastCommitDeletionPolicy12getClassNameEv
libclucene-core.so.1:_ZN6lucene5index32KeepOnlyLastCommitDeletionPolicy6onInitERSt6vectorIPNS0_16IndexCommitPointESaIS4_EE
libclucene-core.so.1:_ZN6lucene5index32KeepOnlyLastCommitDeletionPolicy8onCommitERSt6vectorIPNS0_16IndexCommitPointESaIS4_EE
libclucene-core.so.1:_ZN6lucene5index32KeepOnlyLastCommitDeletionPolicyD0Ev
libclucene-core.so.1:_ZN6lucene5index32KeepOnlyLastCommitDeletionPolicyD1Ev
libclucene-core.so.1:_ZN6lucene5index32KeepOnlyLastCommitDeletionPolicyD2Ev
libclucene-core.so.1:_ZN6lucene5index4Term15hashedCompareToEPS1_
libclucene-core.so.1:_ZN6lucene5index4Term3setEPKS1_PKw
libclucene-core.so.1:_ZN6lucene5index4Term3setEPKwS3_b
libclucene-core.so.1:_ZN6lucene5index4Term8hashCodeEv
libclucene-core.so.1:_ZN6lucene5index4TermC1EPKS1_PKw
libclucene-core.so.1:_ZN6lucene5index4TermC1EPKwS3_
libclucene-core.so.1:_ZN6lucene5index4TermC1EPKwS3_b
libclucene-core.so.1:_ZN6lucene5index4TermC1Ev
libclucene-core.so.1:_ZN6lucene5index4TermC2EPKS1_PKw
libclucene-core.so.1:_ZN6lucene5index4TermC2EPKwS3_
libclucene-core.so.1:_ZN6lucene5index4TermC2EPKwS3_b
libclucene-core.so.1:_ZN6lucene5index4TermC2Ev
libclucene-core.so.1:_ZN6lucene5index4TermD0Ev
libclucene-core.so.1:_ZN6lucene5index4TermD1Ev
libclucene-core.so.1:_ZN6lucene5index4TermD2Ev
libclucene-core.so.1:_ZN6lucene5index7Payload7setDataEPhib
libclucene-core.so.1:_ZN6lucene5index7Payload7setDataERNS_4util10ValueArrayIhEEiib
libclucene-core.so.1:_ZN6lucene5index7PayloadC1EPhib
libclucene-core.so.1:_ZN6lucene5index7PayloadC1ERNS_4util10ValueArrayIhEEiib
libclucene-core.so.1:_ZN6lucene5index7PayloadC1Ev
libclucene-core.so.1:_ZN6lucene5index7PayloadC2EPhib
libclucene-core.so.1:_ZN6lucene5index7PayloadC2ERNS_4util10ValueArrayIhEEiib
libclucene-core.so.1:_ZN6lucene5index7PayloadC2Ev
libclucene-core.so.1:_ZN6lucene5index7PayloadD0Ev
libclucene-core.so.1:_ZN6lucene5index7PayloadD1Ev
libclucene-core.so.1:_ZN6lucene5index7PayloadD2Ev
libclucene-core.so.1:_ZN6lucene5index8TermDocsD0Ev
libclucene-core.so.1:_ZN6lucene5index8TermDocsD1Ev
libclucene-core.so.1:_ZN6lucene5index8TermDocsD2Ev
libclucene-core.so.1:_ZN6lucene5index8TermEnum6skipToEPNS0_4TermE
libclucene-core.so.1:_ZN6lucene5index8TermEnumD0Ev
libclucene-core.so.1:_ZN6lucene5index8TermEnumD1Ev
libclucene-core.so.1:_ZN6lucene5index8TermEnumD2Ev
libclucene-core.so.1:_ZN6lucene5store10IndexInput10readStringEPci
libclucene-core.so.1:_ZN6lucene5store10IndexInput10readStringEPwi
libclucene-core.so.1:_ZN6lucene5store10IndexInput10readStringEv
libclucene-core.so.1:_ZN6lucene5store10IndexInput7readIntEv
libclucene-core.so.1:_ZN6lucene5store10IndexInput8readLongEv
libclucene-core.so.1:_ZN6lucene5store10IndexInput8readVIntEv
libclucene-core.so.1:_ZN6lucene5store10IndexInput9readBytesEPhib
libclucene-core.so.1:_ZN6lucene5store10IndexInput9readCharsEPwii
libclucene-core.so.1:_ZN6lucene5store10IndexInput9readVLongEv
libclucene-core.so.1:_ZN6lucene5store10IndexInput9skipCharsEi
libclucene-core.so.1:_ZN6lucene5store10IndexInputC1ERKS1_
libclucene-core.so.1:_ZN6lucene5store10IndexInputC1Ev
libclucene-core.so.1:_ZN6lucene5store10IndexInputC2ERKS1_
libclucene-core.so.1:_ZN6lucene5store10IndexInputC2Ev
libclucene-core.so.1:_ZN6lucene5store10IndexInputD0Ev
libclucene-core.so.1:_ZN6lucene5store10IndexInputD1Ev
libclucene-core.so.1:_ZN6lucene5store10IndexInputD2Ev
libclucene-core.so.1:_ZN6lucene5store10LuceneLock6obtainEl
libclucene-core.so.1:_ZN6lucene5store10LuceneLockD0Ev
libclucene-core.so.1:_ZN6lucene5store10LuceneLockD1Ev
libclucene-core.so.1:_ZN6lucene5store10LuceneLockD2Ev
libclucene-core.so.1:_ZN6lucene5store11FSDirectory10getLockDirEv
libclucene-core.so.1:_ZN6lucene5store11FSDirectory10renameFileEPKcS3_
libclucene-core.so.1:_ZN6lucene5store11FSDirectory10setUseMMapEb
libclucene-core.so.1:_ZN6lucene5store11FSDirectory11getFileModeEv
libclucene-core.so.1:_ZN6lucene5store11FSDirectory11setFileModeEi
libclucene-core.so.1:_ZN6lucene5store11FSDirectory12FSIndexInput12SharedHandleC1EPKc
libclucene-core.so.1:_ZN6lucene5store11FSDirectory12FSIndexInput12SharedHandleC2EPKc
libclucene-core.so.1:_ZN6lucene5store11FSDirectory12FSIndexInput12SharedHandleD0Ev
libclucene-core.so.1:_ZN6lucene5store11FSDirectory12FSIndexInput12SharedHandleD1Ev
libclucene-core.so.1:_ZN6lucene5store11FSDirectory12FSIndexInput12SharedHandleD2Ev
libclucene-core.so.1:_ZN6lucene5store11FSDirectory12FSIndexInput12readInternalEPhi
libclucene-core.so.1:_ZN6lucene5store11FSDirectory12FSIndexInput12seekInternalEl
libclucene-core.so.1:_ZN6lucene5store11FSDirectory12FSIndexInput4openEPKcRPNS0_10IndexInputER12CLuceneErrori
libclucene-core.so.1:_ZN6lucene5store11FSDirectory12FSIndexInput5closeEv
libclucene-core.so.1:_ZN6lucene5store11FSDirectory12FSIndexInputC1ERKS2_
libclucene-core.so.1:_ZN6lucene5store11FSDirectory12FSIndexInputC2ERKS2_
libclucene-core.so.1:_ZN6lucene5store11FSDirectory12FSIndexInputD0Ev
libclucene-core.so.1:_ZN6lucene5store11FSDirectory12FSIndexInputD1Ev
libclucene-core.so.1:_ZN6lucene5store11FSDirectory12FSIndexInputD2Ev
libclucene-core.so.1:_ZN6lucene5store11FSDirectory12createOutputEPKc
libclucene-core.so.1:_ZN6lucene5store11FSDirectory12doDeleteFileEPKc
libclucene-core.so.1:_ZN6lucene5store11FSDirectory12fileModifiedEPKcS3_
libclucene-core.so.1:_ZN6lucene5store11FSDirectory12getClassNameEv
libclucene-core.so.1:_ZN6lucene5store11FSDirectory12getDirectoryEPKcPNS0_11LockFactoryE
libclucene-core.so.1:_ZN6lucene5store11FSDirectory12getDirectoryEPKcbPNS0_11LockFactoryE
libclucene-core.so.1:_ZN6lucene5store11FSDirectory13FSIndexOutput11flushBufferEPKhi
libclucene-core.so.1:_ZN6lucene5store11FSDirectory13FSIndexOutput4seekEl
libclucene-core.so.1:_ZN6lucene5store11FSDirectory13FSIndexOutput5closeEv
libclucene-core.so.1:_ZN6lucene5store11FSDirectory13FSIndexOutputC1EPKci
libclucene-core.so.1:_ZN6lucene5store11FSDirectory13FSIndexOutputC2EPKci
libclucene-core.so.1:_ZN6lucene5store11FSDirectory13FSIndexOutputD0Ev
libclucene-core.so.1:_ZN6lucene5store11FSDirectory13FSIndexOutputD1Ev
libclucene-core.so.1:_ZN6lucene5store11FSDirectory13FSIndexOutputD2Ev
libclucene-core.so.1:_ZN6lucene5store11FSDirectory15getDisableLocksEv
libclucene-core.so.1:_ZN6lucene5store11FSDirectory15setDisableLocksEb
libclucene-core.so.1:_ZN6lucene5store11FSDirectory4initEPKcPNS0_11LockFactoryE
libclucene-core.so.1:_ZN6lucene5store11FSDirectory5closeEv
libclucene-core.so.1:_ZN6lucene5store11FSDirectory6createEv
libclucene-core.so.1:_ZN6lucene5store11FSDirectory9openInputEPKcRPNS0_10IndexInputER12CLuceneErrori
libclucene-core.so.1:_ZN6lucene5store11FSDirectory9touchFileEPKc
libclucene-core.so.1:_ZN6lucene5store11FSDirectoryC1Ev
libclucene-core.so.1:_ZN6lucene5store11FSDirectoryC2Ev
libclucene-core.so.1:_ZN6lucene5store11FSDirectoryD0Ev
libclucene-core.so.1:_ZN6lucene5store11FSDirectoryD1Ev
libclucene-core.so.1:_ZN6lucene5store11FSDirectoryD2Ev
libclucene-core.so.1:_ZN6lucene5store11IndexOutput10writeCharsEPKwi
libclucene-core.so.1:_ZN6lucene5store11IndexOutput10writeVLongEl
libclucene-core.so.1:_ZN6lucene5store11IndexOutput11writeStringEPKci
libclucene-core.so.1:_ZN6lucene5store11IndexOutput11writeStringEPKwi
libclucene-core.so.1:_ZN6lucene5store11IndexOutput11writeStringERKNSt7__cxx1112basic_stringIcSt11char_traitsIcESaIcEEE
libclucene-core.so.1:_ZN6lucene5store11IndexOutput8writeIntEi
libclucene-core.so.1:_ZN6lucene5store11IndexOutput9copyBytesEPNS0_10IndexInputEl
libclucene-core.so.1:_ZN6lucene5store11IndexOutput9writeLongEl
libclucene-core.so.1:_ZN6lucene5store11IndexOutput9writeVIntEi
libclucene-core.so.1:_ZN6lucene5store11IndexOutputC1Ev
libclucene-core.so.1:_ZN6lucene5store11IndexOutputC2Ev
libclucene-core.so.1:_ZN6lucene5store11IndexOutputD0Ev
libclucene-core.so.1:_ZN6lucene5store11IndexOutputD1Ev
libclucene-core.so.1:_ZN6lucene5store11IndexOutputD2Ev
libclucene-core.so.1:_ZN6lucene5store11LockFactory13getLockPrefixEv
libclucene-core.so.1:_ZN6lucene5store11LockFactory13setLockPrefixEPKc
libclucene-core.so.1:_ZN6lucene5store11LockFactoryC1Ev
libclucene-core.so.1:_ZN6lucene5store11LockFactoryC2Ev
libclucene-core.so.1:_ZN6lucene5store11LockFactoryD0Ev
libclucene-core.so.1:_ZN6lucene5store11LockFactoryD1Ev
libclucene-core.so.1:_ZN6lucene5store11LockFactoryD2Ev
libclucene-core.so.1:_ZN6lucene5store12RAMDirectory10renameFileEPKcS3_
libclucene-core.so.1:_ZN6lucene5store12RAMDirectory12_copyFromDirEPNS0_9DirectoryEb
libclucene-core.so.1:_ZN6lucene5store12RAMDirectory12createOutputEPKc
libclucene-core.so.1:_ZN6lucene5store12RAMDirectory12doDeleteFileEPKc
libclucene-core.so.1:_ZN6lucene5store12RAMDirectory12getClassNameEv
libclucene-core.so.1:_ZN6lucene5store12RAMDirectory5closeEv
libclucene-core.so.1:_ZN6lucene5store12RAMDirectory9openInputEPKcRPNS0_10IndexInputER12CLuceneErrori
libclucene-core.so.1:_ZN6lucene5store12RAMDirectory9touchFileEPKc
libclucene-core.so.1:_ZN6lucene5store12RAMDirectoryC1EPKc
libclucene-core.so.1:_ZN6lucene5store12RAMDirectoryC1EPNS0_9DirectoryE
libclucene-core.so.1:_ZN6lucene5store12RAMDirectoryC1Ev
libclucene-core.so.1:_ZN6lucene5store12RAMDirectoryC2EPKc
libclucene-core.so.1:_ZN6lucene5store12RAMDirectoryC2EPNS0_9DirectoryE
libclucene-core.so.1:_ZN6lucene5store12RAMDirectoryC2Ev
libclucene-core.so.1:_ZN6lucene5store12RAMDirectoryD0Ev
libclucene-core.so.1:_ZN6lucene5store12RAMDirectoryD1Ev
libclucene-core.so.1:_ZN6lucene5store12RAMDirectoryD2Ev
libclucene-core.so.1:_ZN6lucene5store13FSLockFactory10setLockDirEPKc
libclucene-core.so.1:_ZN6lucene5store13FSLockFactory8makeLockEPKc
libclucene-core.so.1:_ZN6lucene5store13FSLockFactory9clearLockEPKc
libclucene-core.so.1:_ZN6lucene5store13FSLockFactoryC1EPKci
libclucene-core.so.1:_ZN6lucene5store13FSLockFactoryC2EPKci
libclucene-core.so.1:_ZN6lucene5store13FSLockFactoryD0Ev
libclucene-core.so.1:_ZN6lucene5store13FSLockFactoryD1Ev
libclucene-core.so.1:_ZN6lucene5store13FSLockFactoryD2Ev
libclucene-core.so.1:_ZN6lucene5store13NoLockFactory16getNoLockFactoryEv
libclucene-core.so.1:_ZN6lucene5store13NoLockFactory8makeLockEPKc
libclucene-core.so.1:_ZN6lucene5store13NoLockFactory9clearLockEPKc
libclucene-core.so.1:_ZN6lucene5store14RAMInputStream12getClassNameEv
libclucene-core.so.1:_ZN6lucene5store14RAMInputStream19switchCurrentBufferEv
libclucene-core.so.1:_ZN6lucene5store14RAMInputStream4seekEl
libclucene-core.so.1:_ZN6lucene5store14RAMInputStream5closeEv
libclucene-core.so.1:_ZN6lucene5store14RAMInputStream8readByteEv
libclucene-core.so.1:_ZN6lucene5store14RAMInputStream9readBytesEPhi
libclucene-core.so.1:_ZN6lucene5store14RAMInputStreamC1EPNS0_7RAMFileE
libclucene-core.so.1:_ZN6lucene5store14RAMInputStreamC1ERKS1_
libclucene-core.so.1:_ZN6lucene5store14RAMInputStreamC2EPNS0_7RAMFileE
libclucene-core.so.1:_ZN6lucene5store14RAMInputStreamC2ERKS1_
libclucene-core.so.1:_ZN6lucene5store14RAMInputStreamD0Ev
libclucene-core.so.1:_ZN6lucene5store14RAMInputStreamD1Ev
libclucene-core.so.1:_ZN6lucene5store14RAMInputStreamD2Ev
libclucene-core.so.1:_ZN6lucene5store15RAMOutputStream10writeBytesEPKhi
libclucene-core.so.1:_ZN6lucene5store15RAMOutputStream13setFileLengthEv
libclucene-core.so.1:_ZN6lucene5store15RAMOutputStream19switchCurrentBufferEv
libclucene-core.so.1:_ZN6lucene5store15RAMOutputStream4seekEl
libclucene-core.so.1:_ZN6lucene5store15RAMOutputStream5closeEv
libclucene-core.so.1:_ZN6lucene5store15RAMOutputStream5flushEv
libclucene-core.so.1:_ZN6lucene5store15RAMOutputStream5resetEv
libclucene-core.so.1:_ZN6lucene5store15RAMOutputStream7writeToEPNS0_11IndexOutputE
libclucene-core.so.1:_ZN6lucene5store15RAMOutputStream9writeByteEh
libclucene-core.so.1:_ZN6lucene5store15RAMOutputStreamC1EPNS0_7RAMFileE
libclucene-core.so.1:_ZN6lucene5store15RAMOutputStreamC1Ev
libclucene-core.so.1:_ZN6lucene5store15RAMOutputStreamC2EPNS0_7RAMFileE
libclucene-core.so.1:_ZN6lucene5store15RAMOutputStreamC2Ev
libclucene-core.so.1:_ZN6lucene5store15RAMOutputStreamD0Ev
libclucene-core.so.1:_ZN6lucene5store15RAMOutputStreamD1Ev
libclucene-core.so.1:_ZN6lucene5store15RAMOutputStreamD2Ev
libclucene-core.so.1:_ZN6lucene5store18BufferedIndexInput12getClassNameEv
libclucene-core.so.1:_ZN6lucene5store18BufferedIndexInput13getObjectNameEv
libclucene-core.so.1:_ZN6lucene5store18BufferedIndexInput13setBufferSizeEi
libclucene-core.so.1:_ZN6lucene5store18BufferedIndexInput4seekEl
libclucene-core.so.1:_ZN6lucene5store18BufferedIndexInput5closeEv
libclucene-core.so.1:_ZN6lucene5store18BufferedIndexInput6refillEv
libclucene-core.so.1:_ZN6lucene5store18BufferedIndexInput9readBytesEPhi
libclucene-core.so.1:_ZN6lucene5store18BufferedIndexInput9readBytesEPhib
libclucene-core.so.1:_ZN6lucene5store18BufferedIndexInputC1ERKS1_
libclucene-core.so.1:_ZN6lucene5store18BufferedIndexInputC1Ei
libclucene-core.so.1:_ZN6lucene5store18BufferedIndexInputC2ERKS1_
libclucene-core.so.1:_ZN6lucene5store18BufferedIndexInputC2Ei
libclucene-core.so.1:_ZN6lucene5store18BufferedIndexInputD0Ev
libclucene-core.so.1:_ZN6lucene5store18BufferedIndexInputD1Ev
libclucene-core.so.1:_ZN6lucene5store18BufferedIndexInputD2Ev
libclucene-core.so.1:_ZN6lucene5store19BufferedIndexOutput10writeBytesEPKhi
libclucene-core.so.1:_ZN6lucene5store19BufferedIndexOutput4seekEl
libclucene-core.so.1:_ZN6lucene5store19BufferedIndexOutput5closeEv
libclucene-core.so.1:_ZN6lucene5store19BufferedIndexOutput5flushEv
libclucene-core.so.1:_ZN6lucene5store19BufferedIndexOutput9writeByteEh
libclucene-core.so.1:_ZN6lucene5store19BufferedIndexOutputC1Ev
libclucene-core.so.1:_ZN6lucene5store19BufferedIndexOutputC2Ev
libclucene-core.so.1:_ZN6lucene5store19BufferedIndexOutputD0Ev
libclucene-core.so.1:_ZN6lucene5store19BufferedIndexOutputD1Ev
libclucene-core.so.1:_ZN6lucene5store19BufferedIndexOutputD2Ev
libclucene-core.so.1:_ZN6lucene5store25SingleInstanceLockFactory8makeLockEPKc
libclucene-core.so.1:_ZN6lucene5store25SingleInstanceLockFactory9clearLockEPKc
libclucene-core.so.1:_ZN6lucene5store25SingleInstanceLockFactoryC1Ev
libclucene-core.so.1:_ZN6lucene5store25SingleInstanceLockFactoryC2Ev
libclucene-core.so.1:_ZN6lucene5store25SingleInstanceLockFactoryD0Ev
libclucene-core.so.1:_ZN6lucene5store25SingleInstanceLockFactoryD1Ev
libclucene-core.so.1:_ZN6lucene5store25SingleInstanceLockFactoryD2Ev
libclucene-core.so.1:_ZN6lucene5store7RAMFile15getLastModifiedEv
libclucene-core.so.1:_ZN6lucene5store7RAMFile15setLastModifiedEm
libclucene-core.so.1:_ZN6lucene5store7RAMFile9addBufferEi
libclucene-core.so.1:_ZN6lucene5store7RAMFile9getBufferEi
libclucene-core.so.1:_ZN6lucene5store7RAMFile9getLengthEv
libclucene-core.so.1:_ZN6lucene5store7RAMFile9newBufferEi
libclucene-core.so.1:_ZN6lucene5store7RAMFile9setLengthEl
libclucene-core.so.1:_ZN6lucene5store7RAMFileC1EPNS0_12RAMDirectoryE
libclucene-core.so.1:_ZN6lucene5store7RAMFileC2EPNS0_12RAMDirectoryE
libclucene-core.so.1:_ZN6lucene5store7RAMFileD0Ev
libclucene-core.so.1:_ZN6lucene5store7RAMFileD1Ev
libclucene-core.so.1:_ZN6lucene5store7RAMFileD2Ev
libclucene-core.so.1:_ZN6lucene5store9Directory10deleteFileEPKcb
libclucene-core.so.1:_ZN6lucene5store9Directory14getLockFactoryEv
libclucene-core.so.1:_ZN6lucene5store9Directory14setLockFactoryEPNS0_11LockFactoryE
libclucene-core.so.1:_ZN6lucene5store9Directory8makeLockEPKc
libclucene-core.so.1:_ZN6lucene5store9Directory9clearLockEPKc
libclucene-core.so.1:_ZN6lucene5store9Directory9getLockIDB5cxx11Ev
libclucene-core.so.1:_ZN6lucene5store9Directory9openInputEPKci
libclucene-core.so.1:_ZN6lucene5store9DirectoryC1Ev
libclucene-core.so.1:_ZN6lucene5store9DirectoryC2Ev
libclucene-core.so.1:_ZN6lucene5store9DirectoryD0Ev
libclucene-core.so.1:_ZN6lucene5store9DirectoryD1Ev
libclucene-core.so.1:_ZN6lucene5store9DirectoryD2Ev
libclucene-core.so.1:_ZN6lucene6search10DateFilter4bitsEPNS_5index11IndexReaderE
libclucene-core.so.1:_ZN6lucene6search10DateFilter5AfterEPKwl
libclucene-core.so.1:_ZN6lucene6search10DateFilter6BeforeEPKwl
libclucene-core.so.1:_ZN6lucene6search10DateFilter8toStringEv
libclucene-core.so.1:_ZN6lucene6search10DateFilterC1EPKwll
libclucene-core.so.1:_ZN6lucene6search10DateFilterC1ERKS1_
libclucene-core.so.1:_ZN6lucene6search10DateFilterC2EPKwll
libclucene-core.so.1:_ZN6lucene6search10DateFilterC2ERKS1_
libclucene-core.so.1:_ZN6lucene6search10DateFilterD0Ev
libclucene-core.so.1:_ZN6lucene6search10DateFilterD1Ev
libclucene-core.so.1:_ZN6lucene6search10DateFilterD2Ev
libclucene-core.so.1:_ZN6lucene6search10FieldCache11StringIndexC1EPiPPwi
libclucene-core.so.1:_ZN6lucene6search10FieldCache11StringIndexC2EPiPPwi
libclucene-core.so.1:_ZN6lucene6search10FieldCache11StringIndexD0Ev
libclucene-core.so.1:_ZN6lucene6search10FieldCache11StringIndexD1Ev
libclucene-core.so.1:_ZN6lucene6search10FieldCache11StringIndexD2Ev
libclucene-core.so.1:_ZN6lucene6search10FieldCache7DEFAULTEv
libclucene-core.so.1:_ZN6lucene6search10FuzzyQuery12getClassNameEv
libclucene-core.so.1:_ZN6lucene6search10FuzzyQuery7getEnumEPNS_5index11IndexReaderE
libclucene-core.so.1:_ZN6lucene6search10FuzzyQuery7rewriteEPNS_5index11IndexReaderE
libclucene-core.so.1:_ZN6lucene6search10FuzzyQueryC1EPNS_5index4TermEfm
libclucene-core.so.1:_ZN6lucene6search10FuzzyQueryC1ERKS1_
libclucene-core.so.1:_ZN6lucene6search10FuzzyQueryC2EPNS_5index4TermEfm
libclucene-core.so.1:_ZN6lucene6search10FuzzyQueryC2ERKS1_
libclucene-core.so.1:_ZN6lucene6search10FuzzyQueryD0Ev
libclucene-core.so.1:_ZN6lucene6search10FuzzyQueryD1Ev
libclucene-core.so.1:_ZN6lucene6search10FuzzyQueryD2Ev
libclucene-core.so.1:_ZN6lucene6search10RangeQuery12getClassNameEv
libclucene-core.so.1:_ZN6lucene6search10RangeQuery7combineEPNS_4util9ArrayBaseIPNS0_5QueryEEE
libclucene-core.so.1:_ZN6lucene6search10RangeQuery7rewriteEPNS_5index11IndexReaderE
libclucene-core.so.1:_ZN6lucene6search10RangeQueryC1EPNS_5index4TermES4_b
libclucene-core.so.1:_ZN6lucene6search10RangeQueryC1ERKS1_
libclucene-core.so.1:_ZN6lucene6search10RangeQueryC2EPNS_5index4TermES4_b
libclucene-core.so.1:_ZN6lucene6search10RangeQueryC2ERKS1_
libclucene-core.so.1:_ZN6lucene6search10RangeQueryD0Ev
libclucene-core.so.1:_ZN6lucene6search10RangeQueryD1Ev
libclucene-core.so.1:_ZN6lucene6search10RangeQueryD2Ev
libclucene-core.so.1:_ZN6lucene6search10Searchable3docEi
libclucene-core.so.1:_ZN6lucene6search10SearchableD0Ev
libclucene-core.so.1:_ZN6lucene6search10SearchableD1Ev
libclucene-core.so.1:_ZN6lucene6search10SearchableD2Ev
libclucene-core.so.1:_ZN6lucene6search10Similarity10decodeNormEh
libclucene-core.so.1:_ZN6lucene6search10Similarity10encodeNormEf
libclucene-core.so.1:_ZN6lucene6search10Similarity10getDefaultEv
libclucene-core.so.1:_ZN6lucene6search10Similarity10setDefaultEPS1_
libclucene-core.so.1:_ZN6lucene6search10Similarity11byteToFloatEh
libclucene-core.so.1:_ZN6lucene6search10Similarity11floatToByteEf
libclucene-core.so.1:_ZN6lucene6search10Similarity3idfEPNS_4util8CLVectorIPNS_5index4TermENS2_7Deletor5DummyEEEPNS0_8SearcherE
libclucene-core.so.1:_ZN6lucene6search10Similarity3idfEPNS_5index4TermEPNS0_8SearcherE
libclucene-core.so.1:_ZN6lucene6search10SimilarityD0Ev
libclucene-core.so.1:_ZN6lucene6search10SimilarityD1Ev
libclucene-core.so.1:_ZN6lucene6search10SimilarityD2Ev
libclucene-core.so.1:_ZN6lucene6search11Explanation10getDetailsEPPS1_
libclucene-core.so.1:_ZN6lucene6search11Explanation10getSummaryEv
libclucene-core.so.1:_ZN6lucene6search11Explanation14setDescriptionEPKw
libclucene-core.so.1:_ZN6lucene6search11Explanation3setERKS1_
libclucene-core.so.1:_ZN6lucene6search11Explanation6toHtmlEv
libclucene-core.so.1:_ZN6lucene6search11Explanation8setValueEf
libclucene-core.so.1:_ZN6lucene6search11Explanation8toStringEi
libclucene-core.so.1:_ZN6lucene6search11Explanation8toStringEv
libclucene-core.so.1:_ZN6lucene6search11Explanation9addDetailEPS1_
libclucene-core.so.1:_ZN6lucene6search11Explanation9getDetailEm
libclucene-core.so.1:_ZN6lucene6search11ExplanationC1ERKS1_
libclucene-core.so.1:_ZN6lucene6search11ExplanationC1EfPKw
libclucene-core.so.1:_ZN6lucene6search11ExplanationC1Ev
libclucene-core.so.1:_ZN6lucene6search11ExplanationC2ERKS1_
libclucene-core.so.1:_ZN6lucene6search11ExplanationC2EfPKw
libclucene-core.so.1:_ZN6lucene6search11ExplanationC2Ev
libclucene-core.so.1:_ZN6lucene6search11ExplanationD0Ev
libclucene-core.so.1:_ZN6lucene6search11ExplanationD1Ev
libclucene-core.so.1:_ZN6lucene6search11ExplanationD2Ev
libclucene-core.so.1:_ZN6lucene6search11PhraseQuery12getClassNameEv
libclucene-core.so.1:_ZN6lucene6search11PhraseQuery13_createWeightEPNS0_8SearcherE
libclucene-core.so.1:_ZN6lucene6search11PhraseQuery3addEPNS_5index4TermE
libclucene-core.so.1:_ZN6lucene6search11PhraseQuery3addEPNS_5index4TermEi
libclucene-core.so.1:_ZN6lucene6search11PhraseQuery7setSlopEi
libclucene-core.so.1:_ZN6lucene6search11PhraseQueryC1ERKS1_
libclucene-core.so.1:_ZN6lucene6search11PhraseQueryC1Ev
libclucene-core.so.1:_ZN6lucene6search11PhraseQueryC2ERKS1_
libclucene-core.so.1:_ZN6lucene6search11PhraseQueryC2Ev
libclucene-core.so.1:_ZN6lucene6search11PhraseQueryD0Ev
libclucene-core.so.1:_ZN6lucene6search11PhraseQueryD1Ev
libclucene-core.so.1:_ZN6lucene6search11PhraseQueryD2Ev
libclucene-core.so.1:_ZN6lucene6search11PrefixQuery12getClassNameEv
libclucene-core.so.1:_ZN6lucene6search11PrefixQuery7combineEPNS_4util9ArrayBaseIPNS0_5QueryEEE
libclucene-core.so.1:_ZN6lucene6search11PrefixQuery7rewriteEPNS_5index11IndexReaderE
libclucene-core.so.1:_ZN6lucene6search11PrefixQuery9getPrefixEb
libclucene-core.so.1:_ZN6lucene6search11PrefixQueryC1EPNS_5index4TermE
libclucene-core.so.1:_ZN6lucene6search11PrefixQueryC1ERKS1_
libclucene-core.so.1:_ZN6lucene6search11PrefixQueryC2EPNS_5index4TermE
libclucene-core.so.1:_ZN6lucene6search11PrefixQueryC2ERKS1_
libclucene-core.so.1:_ZN6lucene6search11PrefixQueryD0Ev
libclucene-core.so.1:_ZN6lucene6search11PrefixQueryD1Ev
libclucene-core.so.1:_ZN6lucene6search11PrefixQueryD2Ev
libclucene-core.so.1:_ZN6lucene6search11QueryFilter4bitsEPNS_5index11IndexReaderE
libclucene-core.so.1:_ZN6lucene6search11QueryFilter8toStringEv
libclucene-core.so.1:_ZN6lucene6search11QueryFilterC1EPKNS0_5QueryE
libclucene-core.so.1:_ZN6lucene6search11QueryFilterC1EPNS0_5QueryEb
libclucene-core.so.1:_ZN6lucene6search11QueryFilterC1ERKS1_
libclucene-core.so.1:_ZN6lucene6search11QueryFilterC2EPKNS0_5QueryE
libclucene-core.so.1:_ZN6lucene6search11QueryFilterC2EPNS0_5QueryEb
libclucene-core.so.1:_ZN6lucene6search11QueryFilterC2ERKS1_
libclucene-core.so.1:_ZN6lucene6search11QueryFilterD0Ev
libclucene-core.so.1:_ZN6lucene6search11QueryFilterD1Ev
libclucene-core.so.1:_ZN6lucene6search11QueryFilterD2Ev
libclucene-core.so.1:_ZN6lucene6search11RangeFilter4LessEPKwS3_
libclucene-core.so.1:_ZN6lucene6search11RangeFilter4MoreEPKwS3_
libclucene-core.so.1:_ZN6lucene6search11RangeFilter4bitsEPNS_5index11IndexReaderE
libclucene-core.so.1:_ZN6lucene6search11RangeFilter8toStringEv
libclucene-core.so.1:_ZN6lucene6search11RangeFilterC1EPKwS3_S3_bb
libclucene-core.so.1:_ZN6lucene6search11RangeFilterC1ERKS1_
libclucene-core.so.1:_ZN6lucene6search11RangeFilterC2EPKwS3_S3_bb
libclucene-core.so.1:_ZN6lucene6search11RangeFilterC2ERKS1_
libclucene-core.so.1:_ZN6lucene6search11RangeFilterD0Ev
libclucene-core.so.1:_ZN6lucene6search11RangeFilterD1Ev
libclucene-core.so.1:_ZN6lucene6search11RangeFilterD2Ev
libclucene-core.so.1:_ZN6lucene6search12BooleanQuery12getClassNameEv
libclucene-core.so.1:_ZN6lucene6search12BooleanQuery13_createWeightEPNS0_8SearcherE
libclucene-core.so.1:_ZN6lucene6search12BooleanQuery13getSimilarityEPNS0_8SearcherE
libclucene-core.so.1:_ZN6lucene6search12BooleanQuery14getUseScorer14Ev
libclucene-core.so.1:_ZN6lucene6search12BooleanQuery14setUseScorer14Eb
libclucene-core.so.1:_ZN6lucene6search12BooleanQuery15isCoordDisabledEv
libclucene-core.so.1:_ZN6lucene6search12BooleanQuery16setCoordDisabledEb
libclucene-core.so.1:_ZN6lucene6search12BooleanQuery17getMaxClauseCountEv
libclucene-core.so.1:_ZN6lucene6search12BooleanQuery17setMaxClauseCountEm
libclucene-core.so.1:_ZN6lucene6search12BooleanQuery19getMinNrShouldMatchEv
libclucene-core.so.1:_ZN6lucene6search12BooleanQuery22getAllowDocsOutOfOrderEv
libclucene-core.so.1:_ZN6lucene6search12BooleanQuery22setAllowDocsOutOfOrderEb
libclucene-core.so.1:_ZN6lucene6search12BooleanQuery3addEPNS0_13BooleanClauseE
libclucene-core.so.1:_ZN6lucene6search12BooleanQuery3addEPNS0_5QueryEbNS0_13BooleanClause5OccurE
libclucene-core.so.1:_ZN6lucene6search12BooleanQuery3addEPNS0_5QueryEbbb
libclucene-core.so.1:_ZN6lucene6search12BooleanQuery7rewriteEPNS_5index11IndexReaderE
libclucene-core.so.1:_ZN6lucene6search12BooleanQueryC1ERKS1_
libclucene-core.so.1:_ZN6lucene6search12BooleanQueryC1Eb
libclucene-core.so.1:_ZN6lucene6search12BooleanQueryC2ERKS1_
libclucene-core.so.1:_ZN6lucene6search12BooleanQueryC2Eb
libclucene-core.so.1:_ZN6lucene6search12BooleanQueryD0Ev
libclucene-core.so.1:_ZN6lucene6search12BooleanQueryD1Ev
libclucene-core.so.1:_ZN6lucene6search12BooleanQueryD2Ev
libclucene-core.so.1:_ZN6lucene6search12PrefixFilter4bitsEPNS_5index11IndexReaderE
libclucene-core.so.1:_ZN6lucene6search12PrefixFilter8toStringEv
libclucene-core.so.1:_ZN6lucene6search12PrefixFilterC1EPNS_5index4TermE
libclucene-core.so.1:_ZN6lucene6search12PrefixFilterC1ERKS1_
libclucene-core.so.1:_ZN6lucene6search12PrefixFilterC2EPNS_5index4TermE
libclucene-core.so.1:_ZN6lucene6search12PrefixFilterC2ERKS1_
libclucene-core.so.1:_ZN6lucene6search12PrefixFilterD0Ev
libclucene-core.so.1:_ZN6lucene6search12PrefixFilterD1Ev
libclucene-core.so.1:_ZN6lucene6search12PrefixFilterD2Ev
libclucene-core.so.1:_ZN6lucene6search13BooleanClause8setOccurENS1_5OccurE
libclucene-core.so.1:_ZN6lucene6search13BooleanClause8setQueryEPNS0_5QueryE
libclucene-core.so.1:_ZN6lucene6search13BooleanClause9setFieldsENS1_5OccurE
libclucene-core.so.1:_ZN6lucene6search13BooleanClauseC1EPNS0_5QueryEbNS1_5OccurE
libclucene-core.so.1:_ZN6lucene6search13BooleanClauseC1EPNS0_5QueryEbbb
libclucene-core.so.1:_ZN6lucene6search13BooleanClauseC1ERKS1_
libclucene-core.so.1:_ZN6lucene6search13BooleanClauseC2EPNS0_5QueryEbNS1_5OccurE
libclucene-core.so.1:_ZN6lucene6search13BooleanClauseC2EPNS0_5QueryEbbb
libclucene-core.so.1:_ZN6lucene6search13BooleanClauseC2ERKS1_
libclucene-core.so.1:_ZN6lucene6search13BooleanClauseD0Ev
libclucene-core.so.1:_ZN6lucene6search13BooleanClauseD1Ev
libclucene-core.so.1:_ZN6lucene6search13BooleanClauseD2Ev
libclucene-core.so.1:_ZN6lucene6search13ChainedFilter11doUserChainEPNS_4util6BitSetES4_i
libclucene-core.so.1:_ZN6lucene6search13ChainedFilter14getLogicStringEi
libclucene-core.so.1:_ZN6lucene6search13ChainedFilter4bitsEPNS_5index11IndexReaderE
libclucene-core.so.1:_ZN6lucene6search13ChainedFilter4bitsEPNS_5index11IndexReaderEPi
libclucene-core.so.1:_ZN6lucene6search13ChainedFilter4bitsEPNS_5index11IndexReaderEi
libclucene-core.so.1:_ZN6lucene6search13ChainedFilter7doChainEPNS_4util6BitSetEPNS_5index11IndexReaderEiPNS0_6FilterE
libclucene-core.so.1:_ZN6lucene6search13ChainedFilter8toStringEv
libclucene-core.so.1:_ZN6lucene6search13ChainedFilterC1EPPNS0_6FilterEPi
libclucene-core.so.1:_ZN6lucene6search13ChainedFilterC1EPPNS0_6FilterEi
libclucene-core.so.1:_ZN6lucene6search13ChainedFilterC1ERKS1_
libclucene-core.so.1:_ZN6lucene6search13ChainedFilterC2EPPNS0_6FilterEPi
libclucene-core.so.1:_ZN6lucene6search13ChainedFilterC2EPPNS0_6FilterEi
libclucene-core.so.1:_ZN6lucene6search13ChainedFilterC2ERKS1_
libclucene-core.so.1:_ZN6lucene6search13ChainedFilterD0Ev
libclucene-core.so.1:_ZN6lucene6search13ChainedFilterD1Ev
libclucene-core.so.1:_ZN6lucene6search13ChainedFilterD2Ev
libclucene-core.so.1:_ZN6lucene6search13FuzzyTermEnum10differenceEv
libclucene-core.so.1:_ZN6lucene6search13FuzzyTermEnum10similarityEPKwm
libclucene-core.so.1:_ZN6lucene6search13FuzzyTermEnum11termCompareEPNS_5index4TermE
libclucene-core.so.1:_ZN6lucene6search13FuzzyTermEnum12getClassNameEv
libclucene-core.so.1:_ZN6lucene6search13FuzzyTermEnum14getMaxDistanceEm
libclucene-core.so.1:_ZN6lucene6search13FuzzyTermEnum22initializeMaxDistancesEv
libclucene-core.so.1:_ZN6lucene6search13FuzzyTermEnum5closeEv
libclucene-core.so.1:_ZN6lucene6search13FuzzyTermEnum7endEnumEv
libclucene-core.so.1:_ZN6lucene6search13FuzzyTermEnumC1EPNS_5index11IndexReaderEPNS2_4TermEfm
libclucene-core.so.1:_ZN6lucene6search13FuzzyTermEnumC2EPNS_5index11IndexReaderEPNS2_4TermEfm
libclucene-core.so.1:_ZN6lucene6search13FuzzyTermEnumD0Ev
libclucene-core.so.1:_ZN6lucene6search13FuzzyTermEnumD1Ev
libclucene-core.so.1:_ZN6lucene6search13FuzzyTermEnumD2Ev
libclucene-core.so.1:_ZN6lucene6search13IndexSearcher12getClassNameEv
libclucene-core.so.1:_ZN6lucene6search13IndexSearcher3docEi
libclucene-core.so.1:_ZN6lucene6search13IndexSearcher3docEiPNS_8document8DocumentE
libclucene-core.so.1:_ZN6lucene6search13IndexSearcher3docEiRNS_8document8DocumentE
libclucene-core.so.1:_ZN6lucene6search13IndexSearcher5closeEv
libclucene-core.so.1:_ZN6lucene6search13IndexSearcher7_searchEPNS0_5QueryEPNS0_6FilterEPNS0_12HitCollectorE
libclucene-core.so.1:_ZN6lucene6search13IndexSearcher7_searchEPNS0_5QueryEPNS0_6FilterEi
libclucene-core.so.1:_ZN6lucene6search13IndexSearcher7_searchEPNS0_5QueryEPNS0_6FilterEiPKNS0_4SortE
libclucene-core.so.1:_ZN6lucene6search13IndexSearcher7explainEPNS0_5QueryEiPNS0_11ExplanationE
libclucene-core.so.1:_ZN6lucene6search13IndexSearcher7rewriteEPNS0_5QueryE
libclucene-core.so.1:_ZN6lucene6search13IndexSearcher9getReaderEv
libclucene-core.so.1:_ZN6lucene6search13IndexSearcherC1EPKc
libclucene-core.so.1:_ZN6lucene6search13IndexSearcherC1EPNS_5index11IndexReaderE
libclucene-core.so.1:_ZN6lucene6search13IndexSearcherC1EPNS_5store9DirectoryE
libclucene-core.so.1:_ZN6lucene6search13IndexSearcherC2EPKc
libclucene-core.so.1:_ZN6lucene6search13IndexSearcherC2EPNS_5index11IndexReaderE
libclucene-core.so.1:_ZN6lucene6search13IndexSearcherC2EPNS_5store9DirectoryE
libclucene-core.so.1:_ZN6lucene6search13IndexSearcherD0Ev
libclucene-core.so.1:_ZN6lucene6search13IndexSearcherD1Ev
libclucene-core.so.1:_ZN6lucene6search13IndexSearcherD2Ev
libclucene-core.so.1:_ZN6lucene6search13MultiSearcher3docEiPNS_8document8DocumentE
libclucene-core.so.1:_ZN6lucene6search13MultiSearcher5closeEv
libclucene-core.so.1:_ZN6lucene6search13MultiSearcher7_searchEPNS0_5QueryEPNS0_6FilterEPNS0_12HitCollectorE
libclucene-core.so.1:_ZN6lucene6search13MultiSearcher7_searchEPNS0_5QueryEPNS0_6FilterEi
libclucene-core.so.1:_ZN6lucene6search13MultiSearcher7_searchEPNS0_5QueryEPNS0_6FilterEiPKNS0_4SortE
libclucene-core.so.1:_ZN6lucene6search13MultiSearcher7explainEPNS0_5QueryEiPNS0_11ExplanationE
libclucene-core.so.1:_ZN6lucene6search13MultiSearcher7rewriteEPNS0_5QueryE
libclucene-core.so.1:_ZN6lucene6search13MultiSearcher9getLengthEv
libclucene-core.so.1:_ZN6lucene6search13MultiSearcher9getStartsEv
libclucene-core.so.1:_ZN6lucene6search13MultiSearcherC1EPPNS0_10SearchableE
libclucene-core.so.1:_ZN6lucene6search13MultiSearcherC2EPPNS0_10SearchableE
libclucene-core.so.1:_ZN6lucene6search13MultiSearcherD0Ev
libclucene-core.so.1:_ZN6lucene6search13MultiSearcherD1Ev
libclucene-core.so.1:_ZN6lucene6search13MultiSearcherD2Ev
libclucene-core.so.1:_ZN6lucene6search13WildcardQuery12getClassNameEv
libclucene-core.so.1:_ZN6lucene6search13WildcardQuery7getEnumEPNS_5index11IndexReaderE
libclucene-core.so.1:_ZN6lucene6search13WildcardQuery7rewriteEPNS_5index11IndexReaderE
libclucene-core.so.1:_ZN6lucene6search13WildcardQueryC1EPNS_5index4TermE
libclucene-core.so.1:_ZN6lucene6search13WildcardQueryC1ERKS1_
libclucene-core.so.1:_ZN6lucene6search13WildcardQueryC2EPNS_5index4TermE
libclucene-core.so.1:_ZN6lucene6search13WildcardQueryC2ERKS1_
libclucene-core.so.1:_ZN6lucene6search13WildcardQueryD0Ev
libclucene-core.so.1:_ZN6lucene6search13WildcardQueryD1Ev
libclucene-core.so.1:_ZN6lucene6search13WildcardQueryD2Ev
libclucene-core.so.1:_ZN6lucene6search14BooleanScorer23addEPNS0_6ScorerEbb
libclucene-core.so.1:_ZN6lucene6search14BooleanScorer24nextEv
libclucene-core.so.1:_ZN6lucene6search14BooleanScorer25scoreEPNS0_12HitCollectorE
libclucene-core.so.1:_ZN6lucene6search14BooleanScorer25scoreEPNS0_12HitCollectorEi
libclucene-core.so.1:_ZN6lucene6search14BooleanScorer25scoreEv
libclucene-core.so.1:_ZN6lucene6search14BooleanScorer26skipToEi
libclucene-core.so.1:_ZN6lucene6search14BooleanScorer27explainEi
libclucene-core.so.1:_ZN6lucene6search14BooleanScorer28toStringEv
libclucene-core.so.1:_ZN6lucene6search14BooleanScorer2C1EPNS0_10SimilarityEib
libclucene-core.so.1:_ZN6lucene6search14BooleanScorer2C2EPNS0_10SimilarityEib
libclucene-core.so.1:_ZN6lucene6search14BooleanScorer2D0Ev
libclucene-core.so.1:_ZN6lucene6search14BooleanScorer2D1Ev
libclucene-core.so.1:_ZN6lucene6search14BooleanScorer2D2Ev
libclucene-core.so.1:_ZN6lucene6search14FieldCacheAutoC1Eii
libclucene-core.so.1:_ZN6lucene6search14FieldCacheAutoC2Eii
libclucene-core.so.1:_ZN6lucene6search14FieldCacheAutoD0Ev
libclucene-core.so.1:_ZN6lucene6search14FieldCacheAutoD1Ev
libclucene-core.so.1:_ZN6lucene6search14FieldCacheAutoD2Ev
libclucene-core.so.1:_ZN6lucene6search14MultiTermQuery7combineEPNS_4util9ArrayBaseIPNS0_5QueryEEE
libclucene-core.so.1:_ZN6lucene6search14MultiTermQuery7rewriteEPNS_5index11IndexReaderE
libclucene-core.so.1:_ZN6lucene6search14MultiTermQueryC1EPNS_5index4TermE
libclucene-core.so.1:_ZN6lucene6search14MultiTermQueryC1ERKS1_
libclucene-core.so.1:_ZN6lucene6search14MultiTermQueryC2EPNS_5index4TermE
libclucene-core.so.1:_ZN6lucene6search14MultiTermQueryC2ERKS1_
libclucene-core.so.1:_ZN6lucene6search14MultiTermQueryD0Ev
libclucene-core.so.1:_ZN6lucene6search14MultiTermQueryD1Ev
libclucene-core.so.1:_ZN6lucene6search14MultiTermQueryD2Ev
libclucene-core.so.1:_ZN6lucene6search14SortComparator13newComparatorEPNS_5index11IndexReaderEPKw
libclucene-core.so.1:_ZN6lucene6search14SortComparatorC1Ev
libclucene-core.so.1:_ZN6lucene6search14SortComparatorC2Ev
libclucene-core.so.1:_ZN6lucene6search14SortComparatorD0Ev
libclucene-core.so.1:_ZN6lucene6search14SortComparatorD1Ev
libclucene-core.so.1:_ZN6lucene6search14SortComparatorD2Ev
libclucene-core.so.1:_ZN6lucene6search14WildcardFilter4bitsEPNS_5index11IndexReaderE
libclucene-core.so.1:_ZN6lucene6search14WildcardFilter8toStringEv
libclucene-core.so.1:_ZN6lucene6search14WildcardFilterC1EPNS_5index4TermE
libclucene-core.so.1:_ZN6lucene6search14WildcardFilterC1ERKS1_
libclucene-core.so.1:_ZN6lucene6search14WildcardFilterC2EPNS_5index4TermE
libclucene-core.so.1:_ZN6lucene6search14WildcardFilterC2ERKS1_
libclucene-core.so.1:_ZN6lucene6search14WildcardFilterD0Ev
libclucene-core.so.1:_ZN6lucene6search14WildcardFilterD1Ev
libclucene-core.so.1:_ZN6lucene6search14WildcardFilterD2Ev
libclucene-core.so.1:_ZN6lucene6search15SpanQueryFilter4bitsEPNS_5index11IndexReaderE
libclucene-core.so.1:_ZN6lucene6search15SpanQueryFilter8bitSpansEPNS_5index11IndexReaderE
libclucene-core.so.1:_ZN6lucene6search15SpanQueryFilter8toStringEv
libclucene-core.so.1:_ZN6lucene6search15SpanQueryFilterC1EPKNS0_5spans9SpanQueryE
libclucene-core.so.1:_ZN6lucene6search15SpanQueryFilterC1EPNS0_5spans9SpanQueryEb
libclucene-core.so.1:_ZN6lucene6search15SpanQueryFilterC1ERKS1_
libclucene-core.so.1:_ZN6lucene6search15SpanQueryFilterC1Ev
libclucene-core.so.1:_ZN6lucene6search15SpanQueryFilterC2EPKNS0_5spans9SpanQueryE
libclucene-core.so.1:_ZN6lucene6search15SpanQueryFilterC2EPNS0_5spans9SpanQueryEb
libclucene-core.so.1:_ZN6lucene6search15SpanQueryFilterC2ERKS1_
libclucene-core.so.1:_ZN6lucene6search15SpanQueryFilterC2Ev
libclucene-core.so.1:_ZN6lucene6search15SpanQueryFilterD0Ev
libclucene-core.so.1:_ZN6lucene6search15SpanQueryFilterD1Ev
libclucene-core.so.1:_ZN6lucene6search15SpanQueryFilterD2Ev
libclucene-core.so.1:_ZN6lucene6search16FilteredTermEnum4nextEv
libclucene-core.so.1:_ZN6lucene6search16FilteredTermEnum4termEb
libclucene-core.so.1:_ZN6lucene6search16FilteredTermEnum5closeEv
libclucene-core.so.1:_ZN6lucene6search16FilteredTermEnum7setEnumEPNS_5index8TermEnumE
libclucene-core.so.1:_ZN6lucene6search16FilteredTermEnumC1Ev
libclucene-core.so.1:_ZN6lucene6search16FilteredTermEnumC2Ev
libclucene-core.so.1:_ZN6lucene6search16FilteredTermEnumD0Ev
libclucene-core.so.1:_ZN6lucene6search16FilteredTermEnumD1Ev
libclucene-core.so.1:_ZN6lucene6search16FilteredTermEnumD2Ev
libclucene-core.so.1:_ZN6lucene6search16MultiPhraseQuery13_createWeightEPNS0_8SearcherE
libclucene-core.so.1:_ZN6lucene6search16MultiPhraseQuery13getTermArraysEv
libclucene-core.so.1:_ZN6lucene6search16MultiPhraseQuery3addEPKNS_4util9ArrayBaseIPNS_5index4TermEEE
libclucene-core.so.1:_ZN6lucene6search16MultiPhraseQuery3addEPKNS_4util9ArrayBaseIPNS_5index4TermEEEi
libclucene-core.so.1:_ZN6lucene6search16MultiPhraseQuery3addEPNS_5index4TermE
libclucene-core.so.1:_ZN6lucene6search16MultiPhraseQuery7rewriteEPNS_5index11IndexReaderE
libclucene-core.so.1:_ZN6lucene6search16MultiPhraseQuery7setSlopEi
libclucene-core.so.1:_ZN6lucene6search16MultiPhraseQueryC1ERKS1_
libclucene-core.so.1:_ZN6lucene6search16MultiPhraseQueryC1Ev
libclucene-core.so.1:_ZN6lucene6search16MultiPhraseQueryC2ERKS1_
libclucene-core.so.1:_ZN6lucene6search16MultiPhraseQueryC2Ev
libclucene-core.so.1:_ZN6lucene6search16MultiPhraseQueryD0Ev
libclucene-core.so.1:_ZN6lucene6search16MultiPhraseQueryD1Ev
libclucene-core.so.1:_ZN6lucene6search16MultiPhraseQueryD2Ev
libclucene-core.so.1:_ZN6lucene6search16WildcardTermEnum10differenceEv
libclucene-core.so.1:_ZN6lucene6search16WildcardTermEnum11termCompareEPNS_5index4TermE
libclucene-core.so.1:_ZN6lucene6search16WildcardTermEnum12getClassNameEv
libclucene-core.so.1:_ZN6lucene6search16WildcardTermEnum14wildcardEqualsEPKwiiS3_ii
libclucene-core.so.1:_ZN6lucene6search16WildcardTermEnum5closeEv
libclucene-core.so.1:_ZN6lucene6search16WildcardTermEnum7endEnumEv
libclucene-core.so.1:_ZN6lucene6search16WildcardTermEnumC1EPNS_5index11IndexReaderEPNS2_4TermE
libclucene-core.so.1:_ZN6lucene6search16WildcardTermEnumC2EPNS_5index11IndexReaderEPNS2_4TermE
libclucene-core.so.1:_ZN6lucene6search16WildcardTermEnumD0Ev
libclucene-core.so.1:_ZN6lucene6search16WildcardTermEnumD1Ev
libclucene-core.so.1:_ZN6lucene6search16WildcardTermEnumD2Ev
libclucene-core.so.1:_ZN6lucene6search17DefaultSimilarity10lengthNormEPKwi
libclucene-core.so.1:_ZN6lucene6search17DefaultSimilarity10sloppyFreqEi
libclucene-core.so.1:_ZN6lucene6search17DefaultSimilarity3idfEii
libclucene-core.so.1:_ZN6lucene6search17DefaultSimilarity5coordEii
libclucene-core.so.1:_ZN6lucene6search17DefaultSimilarity9queryNormEf
libclucene-core.so.1:_ZN6lucene6search17DefaultSimilarityC1Ev
libclucene-core.so.1:_ZN6lucene6search17DefaultSimilarityC2Ev
libclucene-core.so.1:_ZN6lucene6search17DefaultSimilarityD0Ev
libclucene-core.so.1:_ZN6lucene6search17DefaultSimilarityD1Ev
libclucene-core.so.1:_ZN6lucene6search17DefaultSimilarityD2Ev
libclucene-core.so.1:_ZN6lucene6search17MatchAllDocsQuery12getClassNameEv
libclucene-core.so.1:_ZN6lucene6search17MatchAllDocsQuery13_createWeightEPNS0_8SearcherE
libclucene-core.so.1:_ZN6lucene6search17MatchAllDocsQuery14MatchAllScorer4nextEv
libclucene-core.so.1:_ZN6lucene6search17MatchAllDocsQuery14MatchAllScorer5scoreEv
libclucene-core.so.1:_ZN6lucene6search17MatchAllDocsQuery14MatchAllScorer6skipToEi
libclucene-core.so.1:_ZN6lucene6search17MatchAllDocsQuery14MatchAllScorer7explainEi
libclucene-core.so.1:_ZN6lucene6search17MatchAllDocsQuery14MatchAllScorer8toStringEv
libclucene-core.so.1:_ZN6lucene6search17MatchAllDocsQuery14MatchAllScorerC1EPNS_5index11IndexReaderEPNS0_10SimilarityEPNS0_6WeightE
libclucene-core.so.1:_ZN6lucene6search17MatchAllDocsQuery14MatchAllScorerC2EPNS_5index11IndexReaderEPNS0_10SimilarityEPNS0_6WeightE
libclucene-core.so.1:_ZN6lucene6search17MatchAllDocsQuery18MatchAllDocsWeight19sumOfSquaredWeightsEv
libclucene-core.so.1:_ZN6lucene6search17MatchAllDocsQuery18MatchAllDocsWeight6scorerEPNS_5index11IndexReaderE
libclucene-core.so.1:_ZN6lucene6search17MatchAllDocsQuery18MatchAllDocsWeight7explainEPNS_5index11IndexReaderEi
libclucene-core.so.1:_ZN6lucene6search17MatchAllDocsQuery18MatchAllDocsWeight8getQueryEv
libclucene-core.so.1:_ZN6lucene6search17MatchAllDocsQuery18MatchAllDocsWeight8getValueEv
libclucene-core.so.1:_ZN6lucene6search17MatchAllDocsQuery18MatchAllDocsWeight8toStringEv
libclucene-core.so.1:_ZN6lucene6search17MatchAllDocsQuery18MatchAllDocsWeight9normalizeEf
libclucene-core.so.1:_ZN6lucene6search17MatchAllDocsQuery18MatchAllDocsWeightC1EPS1_PNS0_8SearcherE
libclucene-core.so.1:_ZN6lucene6search17MatchAllDocsQuery18MatchAllDocsWeightC2EPS1_PNS0_8SearcherE
libclucene-core.so.1:_ZN6lucene6search17MatchAllDocsQueryC1ERKS1_
libclucene-core.so.1:_ZN6lucene6search17MatchAllDocsQueryC1Ev
libclucene-core.so.1:_ZN6lucene6search17MatchAllDocsQueryC2ERKS1_
libclucene-core.so.1:_ZN6lucene6search17MatchAllDocsQueryC2Ev
libclucene-core.so.1:_ZN6lucene6search17MatchAllDocsQueryD0Ev
libclucene-core.so.1:_ZN6lucene6search17MatchAllDocsQueryD1Ev
libclucene-core.so.1:_ZN6lucene6search17MatchAllDocsQueryD2Ev
libclucene-core.so.1:_ZN6lucene6search18ComplexExplanation10getSummaryEv
libclucene-core.so.1:_ZN6lucene6search18ComplexExplanation8setMatchEb
libclucene-core.so.1:_ZN6lucene6search18ComplexExplanationC1ERKS1_
libclucene-core.so.1:_ZN6lucene6search18ComplexExplanationC1EbfPKw
libclucene-core.so.1:_ZN6lucene6search18ComplexExplanationC1Ev
libclucene-core.so.1:_ZN6lucene6search18ComplexExplanationC2ERKS1_
libclucene-core.so.1:_ZN6lucene6search18ComplexExplanationC2EbfPKw
libclucene-core.so.1:_ZN6lucene6search18ComplexExplanationC2Ev
libclucene-core.so.1:_ZN6lucene6search18ComplexExplanationD0Ev
libclucene-core.so.1:_ZN6lucene6search18ComplexExplanationD1Ev
libclucene-core.so.1:_ZN6lucene6search18ComplexExplanationD2Ev
libclucene-core.so.1:_ZN6lucene6search18ConstantScoreQuery13_createWeightEPNS0_8SearcherE
libclucene-core.so.1:_ZN6lucene6search18ConstantScoreQuery7rewriteEPNS_5index11IndexReaderE
libclucene-core.so.1:_ZN6lucene6search18ConstantScoreQueryC1EPNS0_6FilterE
libclucene-core.so.1:_ZN6lucene6search18ConstantScoreQueryC1ERKS1_
libclucene-core.so.1:_ZN6lucene6search18ConstantScoreQueryC2EPNS0_6FilterE
libclucene-core.so.1:_ZN6lucene6search18ConstantScoreQueryC2ERKS1_
libclucene-core.so.1:_ZN6lucene6search18ConstantScoreQueryD0Ev
libclucene-core.so.1:_ZN6lucene6search18ConstantScoreQueryD1Ev
libclucene-core.so.1:_ZN6lucene6search18ConstantScoreQueryD2Ev
libclucene-core.so.1:_ZN6lucene6search18ScoreDocComparator10INDEXORDEREv
libclucene-core.so.1:_ZN6lucene6search18ScoreDocComparator9RELEVANCEEv
libclucene-core.so.1:_ZN6lucene6search18ScoreDocComparatorD0Ev
libclucene-core.so.1:_ZN6lucene6search18ScoreDocComparatorD1Ev
libclucene-core.so.1:_ZN6lucene6search18ScoreDocComparatorD2Ev
libclucene-core.so.1:_ZN6lucene6search19FieldSortedHitQueue13closeCallbackEPNS_5index11IndexReaderEPv
libclucene-core.so.1:_ZN6lucene6search19FieldSortedHitQueue13comparatorIntEPNS_5index11IndexReaderEPKw
libclucene-core.so.1:_ZN6lucene6search19FieldSortedHitQueue14comparatorAutoEPNS_5index11IndexReaderEPKw
libclucene-core.so.1:_ZN6lucene6search19FieldSortedHitQueue15comparatorFloatEPNS_5index11IndexReaderEPKw
libclucene-core.so.1:_ZN6lucene6search19FieldSortedHitQueue16comparatorStringEPNS_5index11IndexReaderEPKw
libclucene-core.so.1:_ZN6lucene6search19FieldSortedHitQueue19getCachedComparatorEPNS_5index11IndexReaderEPKwiPNS0_20SortComparatorSourceE
libclucene-core.so.1:_ZN6lucene6search19FieldSortedHitQueue5storeEPNS_5index11IndexReaderEPKwiPNS0_20SortComparatorSourceEPNS0_18ScoreDocComparatorE
libclucene-core.so.1:_ZN6lucene6search19FieldSortedHitQueue6lookupEPNS_5index11IndexReaderEPKwiPNS0_20SortComparatorSourceE
libclucene-core.so.1:_ZN6lucene6search19FieldSortedHitQueue8lessThanEPNS0_8FieldDocES3_
libclucene-core.so.1:_ZN6lucene6search19FieldSortedHitQueueC1EPNS_5index11IndexReaderEPPNS0_9SortFieldEi
libclucene-core.so.1:_ZN6lucene6search19FieldSortedHitQueueC2EPNS_5index11IndexReaderEPPNS0_9SortFieldEi
libclucene-core.so.1:_ZN6lucene6search19FieldSortedHitQueueD0Ev
libclucene-core.so.1:_ZN6lucene6search19FieldSortedHitQueueD1Ev
libclucene-core.so.1:_ZN6lucene6search19FieldSortedHitQueueD2Ev
libclucene-core.so.1:_ZN6lucene6search19ScoreDocComparators10IndexOrder7compareEPNS0_8ScoreDocES4_
libclucene-core.so.1:_ZN6lucene6search19ScoreDocComparators10IndexOrder8sortTypeEv
libclucene-core.so.1:_ZN6lucene6search19ScoreDocComparators10IndexOrder9sortValueEPNS0_8ScoreDocE
libclucene-core.so.1:_ZN6lucene6search19ScoreDocComparators10IndexOrderC1Ev
libclucene-core.so.1:_ZN6lucene6search19ScoreDocComparators10IndexOrderC2Ev
libclucene-core.so.1:_ZN6lucene6search19ScoreDocComparators5Float7compareEPNS0_8ScoreDocES4_
libclucene-core.so.1:_ZN6lucene6search19ScoreDocComparators5Float8sortTypeEv
libclucene-core.so.1:_ZN6lucene6search19ScoreDocComparators5Float9sortValueEPNS0_8ScoreDocE
libclucene-core.so.1:_ZN6lucene6search19ScoreDocComparators5FloatC1EPfi
libclucene-core.so.1:_ZN6lucene6search19ScoreDocComparators5FloatC2EPfi
libclucene-core.so.1:_ZN6lucene6search19ScoreDocComparators5Int327compareEPNS0_8ScoreDocES4_
libclucene-core.so.1:_ZN6lucene6search19ScoreDocComparators5Int328sortTypeEv
libclucene-core.so.1:_ZN6lucene6search19ScoreDocComparators5Int329sortValueEPNS0_8ScoreDocE
libclucene-core.so.1:_ZN6lucene6search19ScoreDocComparators5Int32C1EPii
libclucene-core.so.1:_ZN6lucene6search19ScoreDocComparators5Int32C2EPii
libclucene-core.so.1:_ZN6lucene6search19ScoreDocComparators6String7compareEPNS0_8ScoreDocES4_
libclucene-core.so.1:_ZN6lucene6search19ScoreDocComparators6String8sortTypeEv
libclucene-core.so.1:_ZN6lucene6search19ScoreDocComparators6String9sortValueEPNS0_8ScoreDocE
libclucene-core.so.1:_ZN6lucene6search19ScoreDocComparators6StringC1EPNS0_10FieldCache11StringIndexEi
libclucene-core.so.1:_ZN6lucene6search19ScoreDocComparators6StringC2EPNS0_10FieldCache11StringIndexEi
libclucene-core.so.1:_ZN6lucene6search19ScoreDocComparators9Relevance7compareEPNS0_8ScoreDocES4_
libclucene-core.so.1:_ZN6lucene6search19ScoreDocComparators9Relevance8sortTypeEv
libclucene-core.so.1:_ZN6lucene6search19ScoreDocComparators9Relevance9sortValueEPNS0_8ScoreDocE
libclucene-core.so.1:_ZN6lucene6search19ScoreDocComparatorsC1Ev
libclucene-core.so.1:_ZN6lucene6search19ScoreDocComparatorsC2Ev
libclucene-core.so.1:_ZN6lucene6search19ScoreDocComparatorsD0Ev
libclucene-core.so.1:_ZN6lucene6search19ScoreDocComparatorsD1Ev
libclucene-core.so.1:_ZN6lucene6search19ScoreDocComparatorsD2Ev
libclucene-core.so.1:_ZN6lucene6search20CachingWrapperFilter20doShouldDeleteBitSetEPNS_4util6BitSetE
libclucene-core.so.1:_ZN6lucene6search20CachingWrapperFilter6doBitsEPNS_5index11IndexReaderE
libclucene-core.so.1:_ZN6lucene6search20CachingWrapperFilter8toStringEv
libclucene-core.so.1:_ZN6lucene6search20CachingWrapperFilterC1EPNS0_6FilterEb
libclucene-core.so.1:_ZN6lucene6search20CachingWrapperFilterC1ERKS1_
libclucene-core.so.1:_ZN6lucene6search20CachingWrapperFilterC2EPNS0_6FilterEb
libclucene-core.so.1:_ZN6lucene6search20CachingWrapperFilterC2ERKS1_
libclucene-core.so.1:_ZN6lucene6search20CachingWrapperFilterD0Ev
libclucene-core.so.1:_ZN6lucene6search20CachingWrapperFilterD1Ev
libclucene-core.so.1:_ZN6lucene6search20CachingWrapperFilterD2Ev
libclucene-core.so.1:_ZN6lucene6search21AbstractCachingFilter13closeCallbackEPNS_5index11IndexReaderEPv
libclucene-core.so.1:_ZN6lucene6search21AbstractCachingFilter4bitsEPNS_5index11IndexReaderE
libclucene-core.so.1:_ZN6lucene6search21AbstractCachingFilterC1ERKS1_
libclucene-core.so.1:_ZN6lucene6search21AbstractCachingFilterC1Ev
libclucene-core.so.1:_ZN6lucene6search21AbstractCachingFilterC2ERKS1_
libclucene-core.so.1:_ZN6lucene6search21AbstractCachingFilterC2Ev
libclucene-core.so.1:_ZN6lucene6search21AbstractCachingFilterD0Ev
libclucene-core.so.1:_ZN6lucene6search21AbstractCachingFilterD1Ev
libclucene-core.so.1:_ZN6lucene6search21AbstractCachingFilterD2Ev
libclucene-core.so.1:_ZN6lucene6search23ConstantScoreRangeQuery7rewriteEPNS_5index11IndexReaderE
libclucene-core.so.1:_ZN6lucene6search23ConstantScoreRangeQueryC1EPKwS3_S3_bb
libclucene-core.so.1:_ZN6lucene6search23ConstantScoreRangeQueryC1ERKS1_
libclucene-core.so.1:_ZN6lucene6search23ConstantScoreRangeQueryC2EPKwS3_S3_bb
libclucene-core.so.1:_ZN6lucene6search23ConstantScoreRangeQueryC2ERKS1_
libclucene-core.so.1:_ZN6lucene6search23ConstantScoreRangeQueryD0Ev
libclucene-core.so.1:_ZN6lucene6search23ConstantScoreRangeQueryD1Ev
libclucene-core.so.1:_ZN6lucene6search23ConstantScoreRangeQueryD2Ev
libclucene-core.so.1:_ZN6lucene6search4Hits10addToFrontEPNS0_6HitDocE
libclucene-core.so.1:_ZN6lucene6search4Hits11getMoreDocsEm
libclucene-core.so.1:_ZN6lucene6search4Hits14countDeletionsEPNS0_8SearcherE
libclucene-core.so.1:_ZN6lucene6search4Hits2idEi
libclucene-core.so.1:_ZN6lucene6search4Hits3docEi
libclucene-core.so.1:_ZN6lucene6search4Hits5scoreEi
libclucene-core.so.1:_ZN6lucene6search4Hits6removeEPKNS0_6HitDocE
libclucene-core.so.1:_ZN6lucene6search4Hits9getHitDocEm
libclucene-core.so.1:_ZN6lucene6search4HitsC1EPNS0_8SearcherEPNS0_5QueryEPNS0_6FilterEPKNS0_4SortE
libclucene-core.so.1:_ZN6lucene6search4HitsC2EPNS0_8SearcherEPNS0_5QueryEPNS0_6FilterEPKNS0_4SortE
libclucene-core.so.1:_ZN6lucene6search4HitsD0Ev
libclucene-core.so.1:_ZN6lucene6search4HitsD1Ev
libclucene-core.so.1:_ZN6lucene6search4HitsD2Ev
libclucene-core.so.1:_ZN6lucene6search4Sort10INDEXORDEREv
libclucene-core.so.1:_ZN6lucene6search4Sort5clearEv
libclucene-core.so.1:_ZN6lucene6search4Sort7setSortEPKwb
libclucene-core.so.1:_ZN6lucene6search4Sort7setSortEPNS0_9SortFieldE
libclucene-core.so.1:_ZN6lucene6search4Sort7setSortEPPKw
libclucene-core.so.1:_ZN6lucene6search4Sort7setSortEPPNS0_9SortFieldE
libclucene-core.so.1:_ZN6lucene6search4Sort9RELEVANCEEv
libclucene-core.so.1:_ZN6lucene6search4SortC1EPKwb
libclucene-core.so.1:_ZN6lucene6search4SortC1EPNS0_9SortFieldE
libclucene-core.so.1:_ZN6lucene6search4SortC1EPPKw
libclucene-core.so.1:_ZN6lucene6search4SortC1EPPNS0_9SortFieldE
libclucene-core.so.1:_ZN6lucene6search4SortC1Ev
libclucene-core.so.1:_ZN6lucene6search4SortC2EPKwb
libclucene-core.so.1:_ZN6lucene6search4SortC2EPNS0_9SortFieldE
libclucene-core.so.1:_ZN6lucene6search4SortC2EPPKw
libclucene-core.so.1:_ZN6lucene6search4SortC2EPPNS0_9SortFieldE
libclucene-core.so.1:_ZN6lucene6search4SortC2Ev
libclucene-core.so.1:_ZN6lucene6search4SortD0Ev
libclucene-core.so.1:_ZN6lucene6search4SortD1Ev
libclucene-core.so.1:_ZN6lucene6search4SortD2Ev
libclucene-core.so.1:_ZN6lucene6search5Query13_createWeightEPNS0_8SearcherE
libclucene-core.so.1:_ZN6lucene6search5Query13getSimilarityEPNS0_8SearcherE
libclucene-core.so.1:_ZN6lucene6search5Query19mergeBooleanQueriesEPNS_4util9ArrayBaseIPS1_EE
libclucene-core.so.1:_ZN6lucene6search5Query6weightEPNS0_8SearcherE
libclucene-core.so.1:_ZN6lucene6search5Query7combineEPNS_4util9ArrayBaseIPS1_EE
libclucene-core.so.1:_ZN6lucene6search5Query7rewriteEPNS_5index11IndexReaderE
libclucene-core.so.1:_ZN6lucene6search5Query8setBoostEf
libclucene-core.so.1:_ZN6lucene6search5QueryC1ERKS1_
libclucene-core.so.1:_ZN6lucene6search5QueryC1Ev
libclucene-core.so.1:_ZN6lucene6search5QueryC2ERKS1_
libclucene-core.so.1:_ZN6lucene6search5QueryC2Ev
libclucene-core.so.1:_ZN6lucene6search5QueryD0Ev
libclucene-core.so.1:_ZN6lucene6search5QueryD1Ev
libclucene-core.so.1:_ZN6lucene6search5QueryD2Ev
libclucene-core.so.1:_ZN6lucene6search5spans10SpanScorer17setFreqCurrentDocEv
libclucene-core.so.1:_ZN6lucene6search5spans10SpanScorer4nextEv
libclucene-core.so.1:_ZN6lucene6search5spans10SpanScorer5scoreEv
libclucene-core.so.1:_ZN6lucene6search5spans10SpanScorer6skipToEi
libclucene-core.so.1:_ZN6lucene6search5spans10SpanScorer7explainEi
libclucene-core.so.1:_ZN6lucene6search5spans10SpanScorer8toStringEv
libclucene-core.so.1:_ZN6lucene6search5spans10SpanScorerC1EPNS1_5SpansEPNS0_6WeightEPNS0_10SimilarityEPh
libclucene-core.so.1:_ZN6lucene6search5spans10SpanScorerC2EPNS1_5SpansEPNS0_6WeightEPNS0_10SimilarityEPh
libclucene-core.so.1:_ZN6lucene6search5spans10SpanScorerD0Ev
libclucene-core.so.1:_ZN6lucene6search5spans10SpanScorerD1Ev
libclucene-core.so.1:_ZN6lucene6search5spans10SpanScorerD2Ev
libclucene-core.so.1:_ZN6lucene6search5spans10SpanWeight19sumOfSquaredWeightsEv
libclucene-core.so.1:_ZN6lucene6search5spans10SpanWeight6scorerEPNS_5index11IndexReaderE
libclucene-core.so.1:_ZN6lucene6search5spans10SpanWeight7explainEPNS_5index11IndexReaderEi
libclucene-core.so.1:_ZN6lucene6search5spans10SpanWeight8getQueryEv
libclucene-core.so.1:_ZN6lucene6search5spans10SpanWeight8getValueEv
libclucene-core.so.1:_ZN6lucene6search5spans10SpanWeight9normalizeEf
libclucene-core.so.1:_ZN6lucene6search5spans10SpanWeightC1EPNS1_9SpanQueryEPNS0_8SearcherE
libclucene-core.so.1:_ZN6lucene6search5spans10SpanWeightC2EPNS1_9SpanQueryEPNS0_8SearcherE
libclucene-core.so.1:_ZN6lucene6search5spans10SpanWeightD0Ev
libclucene-core.so.1:_ZN6lucene6search5spans10SpanWeightD1Ev
libclucene-core.so.1:_ZN6lucene6search5spans10SpanWeightD2Ev
libclucene-core.so.1:_ZN6lucene6search5spans11SpanOrQuery12getClassNameEv
libclucene-core.so.1:_ZN6lucene6search5spans11SpanOrQuery16SpanOrQuerySpans13initSpanQueueEi
libclucene-core.so.1:_ZN6lucene6search5spans11SpanOrQuery16SpanOrQuerySpans4nextEv
libclucene-core.so.1:_ZN6lucene6search5spans11SpanOrQuery16SpanOrQuerySpans6skipToEi
libclucene-core.so.1:_ZN6lucene6search5spans11SpanOrQuery16SpanOrQuerySpansC1EPS2_PNS_5index11IndexReaderE
libclucene-core.so.1:_ZN6lucene6search5spans11SpanOrQuery16SpanOrQuerySpansC2EPS2_PNS_5index11IndexReaderE
libclucene-core.so.1:_ZN6lucene6search5spans11SpanOrQuery16SpanOrQuerySpansD0Ev
libclucene-core.so.1:_ZN6lucene6search5spans11SpanOrQuery16SpanOrQuerySpansD1Ev
libclucene-core.so.1:_ZN6lucene6search5spans11SpanOrQuery16SpanOrQuerySpansD2Ev
libclucene-core.so.1:_ZN6lucene6search5spans11SpanOrQuery7rewriteEPNS_5index11IndexReaderE
libclucene-core.so.1:_ZN6lucene6search5spans11SpanOrQuery8getSpansEPNS_5index11IndexReaderE
libclucene-core.so.1:_ZN6lucene6search5spans11SpanOrQuery8setFieldEPKw
libclucene-core.so.1:_ZN6lucene6search5spans11SpanOrQueryC1ERKS2_
libclucene-core.so.1:_ZN6lucene6search5spans11SpanOrQueryC2ERKS2_
libclucene-core.so.1:_ZN6lucene6search5spans11SpanOrQueryD0Ev
libclucene-core.so.1:_ZN6lucene6search5spans11SpanOrQueryD1Ev
libclucene-core.so.1:_ZN6lucene6search5spans11SpanOrQueryD2Ev
libclucene-core.so.1:_ZN6lucene6search5spans12SpanNotQuery12getClassNameEv
libclucene-core.so.1:_ZN6lucene6search5spans12SpanNotQuery17SpanNotQuerySpans4nextEv
libclucene-core.so.1:_ZN6lucene6search5spans12SpanNotQuery17SpanNotQuerySpans6skipToEi
libclucene-core.so.1:_ZN6lucene6search5spans12SpanNotQuery17SpanNotQuerySpansC1EPS2_PNS_5index11IndexReaderE
libclucene-core.so.1:_ZN6lucene6search5spans12SpanNotQuery17SpanNotQuerySpansC2EPS2_PNS_5index11IndexReaderE
libclucene-core.so.1:_ZN6lucene6search5spans12SpanNotQuery17SpanNotQuerySpansD0Ev
libclucene-core.so.1:_ZN6lucene6search5spans12SpanNotQuery17SpanNotQuerySpansD1Ev
libclucene-core.so.1:_ZN6lucene6search5spans12SpanNotQuery17SpanNotQuerySpansD2Ev
libclucene-core.so.1:_ZN6lucene6search5spans12SpanNotQuery7rewriteEPNS_5index11IndexReaderE
libclucene-core.so.1:_ZN6lucene6search5spans12SpanNotQuery8getSpansEPNS_5index11IndexReaderE
libclucene-core.so.1:_ZN6lucene6search5spans12SpanNotQueryC1EPNS1_9SpanQueryES4_b
libclucene-core.so.1:_ZN6lucene6search5spans12SpanNotQueryC1ERKS2_
libclucene-core.so.1:_ZN6lucene6search5spans12SpanNotQueryC2EPNS1_9SpanQueryES4_b
libclucene-core.so.1:_ZN6lucene6search5spans12SpanNotQueryC2ERKS2_
libclucene-core.so.1:_ZN6lucene6search5spans12SpanNotQueryD0Ev
libclucene-core.so.1:_ZN6lucene6search5spans12SpanNotQueryD1Ev
libclucene-core.so.1:_ZN6lucene6search5spans12SpanNotQueryD2Ev
libclucene-core.so.1:_ZN6lucene6search5spans13SpanNearQuery12getClassNameEv
libclucene-core.so.1:_ZN6lucene6search5spans13SpanNearQuery7rewriteEPNS_5index11IndexReaderE
libclucene-core.so.1:_ZN6lucene6search5spans13SpanNearQuery8getSpansEPNS_5index11IndexReaderE
libclucene-core.so.1:_ZN6lucene6search5spans13SpanNearQuery8setFieldEPKw
libclucene-core.so.1:_ZN6lucene6search5spans13SpanNearQueryC1ERKS2_
libclucene-core.so.1:_ZN6lucene6search5spans13SpanNearQueryC2ERKS2_
libclucene-core.so.1:_ZN6lucene6search5spans13SpanNearQueryD0Ev
libclucene-core.so.1:_ZN6lucene6search5spans13SpanNearQueryD1Ev
libclucene-core.so.1:_ZN6lucene6search5spans13SpanNearQueryD2Ev
libclucene-core.so.1:_ZN6lucene6search5spans13SpanTermQuery12getClassNameEv
libclucene-core.so.1:_ZN6lucene6search5spans13SpanTermQuery8getSpansEPNS_5index11IndexReaderE
libclucene-core.so.1:_ZN6lucene6search5spans13SpanTermQueryC1EPNS_5index4TermE
libclucene-core.so.1:_ZN6lucene6search5spans13SpanTermQueryC1ERKS2_
libclucene-core.so.1:_ZN6lucene6search5spans13SpanTermQueryC2EPNS_5index4TermE
libclucene-core.so.1:_ZN6lucene6search5spans13SpanTermQueryC2ERKS2_
libclucene-core.so.1:_ZN6lucene6search5spans13SpanTermQueryD0Ev
libclucene-core.so.1:_ZN6lucene6search5spans13SpanTermQueryD1Ev
libclucene-core.so.1:_ZN6lucene6search5spans13SpanTermQueryD2Ev
libclucene-core.so.1:_ZN6lucene6search5spans14SpanFirstQuery12getClassNameEv
libclucene-core.so.1:_ZN6lucene6search5spans14SpanFirstQuery19SpanFirstQuerySpans4nextEv
libclucene-core.so.1:_ZN6lucene6search5spans14SpanFirstQuery19SpanFirstQuerySpans6skipToEi
libclucene-core.so.1:_ZN6lucene6search5spans14SpanFirstQuery19SpanFirstQuerySpansC1EPS2_PNS_5index11IndexReaderE
libclucene-core.so.1:_ZN6lucene6search5spans14SpanFirstQuery19SpanFirstQuerySpansC2EPS2_PNS_5index11IndexReaderE
libclucene-core.so.1:_ZN6lucene6search5spans14SpanFirstQuery19SpanFirstQuerySpansD0Ev
libclucene-core.so.1:_ZN6lucene6search5spans14SpanFirstQuery19SpanFirstQuerySpansD1Ev
libclucene-core.so.1:_ZN6lucene6search5spans14SpanFirstQuery19SpanFirstQuerySpansD2Ev
libclucene-core.so.1:_ZN6lucene6search5spans14SpanFirstQuery7rewriteEPNS_5index11IndexReaderE
libclucene-core.so.1:_ZN6lucene6search5spans14SpanFirstQuery8getSpansEPNS_5index11IndexReaderE
libclucene-core.so.1:_ZN6lucene6search5spans14SpanFirstQueryC1EPNS1_9SpanQueryEib
libclucene-core.so.1:_ZN6lucene6search5spans14SpanFirstQueryC1ERKS2_
libclucene-core.so.1:_ZN6lucene6search5spans14SpanFirstQueryC2EPNS1_9SpanQueryEib
libclucene-core.so.1:_ZN6lucene6search5spans14SpanFirstQueryC2ERKS2_
libclucene-core.so.1:_ZN6lucene6search5spans14SpanFirstQueryD0Ev
libclucene-core.so.1:_ZN6lucene6search5spans14SpanFirstQueryD1Ev
libclucene-core.so.1:_ZN6lucene6search5spans14SpanFirstQueryD2Ev
libclucene-core.so.1:_ZN6lucene6search6HitDocC1Efi
libclucene-core.so.1:_ZN6lucene6search6HitDocC2Efi
libclucene-core.so.1:_ZN6lucene6search6HitDocD0Ev
libclucene-core.so.1:_ZN6lucene6search6HitDocD1Ev
libclucene-core.so.1:_ZN6lucene6search6HitDocD2Ev
libclucene-core.so.1:_ZN6lucene6search6Scorer4sortEPKS1_S3_
libclucene-core.so.1:_ZN6lucene6search6Scorer5scoreEPNS0_12HitCollectorE
libclucene-core.so.1:_ZN6lucene6search6Scorer5scoreEPNS0_12HitCollectorEi
libclucene-core.so.1:_ZN6lucene6search6ScorerC1EPNS0_10SimilarityE
libclucene-core.so.1:_ZN6lucene6search6ScorerC2EPNS0_10SimilarityE
libclucene-core.so.1:_ZN6lucene6search6ScorerD0Ev
libclucene-core.so.1:_ZN6lucene6search6ScorerD1Ev
libclucene-core.so.1:_ZN6lucene6search6ScorerD2Ev
libclucene-core.so.1:_ZN6lucene6search6Weight8toStringEv
libclucene-core.so.1:_ZN6lucene6search6WeightD0Ev
libclucene-core.so.1:_ZN6lucene6search6WeightD1Ev
libclucene-core.so.1:_ZN6lucene6search6WeightD2Ev
libclucene-core.so.1:_ZN6lucene6search7TopDocsC1EiPNS0_8ScoreDocEi
libclucene-core.so.1:_ZN6lucene6search7TopDocsC2EiPNS0_8ScoreDocEi
libclucene-core.so.1:_ZN6lucene6search7TopDocsD0Ev
libclucene-core.so.1:_ZN6lucene6search7TopDocsD1Ev
libclucene-core.so.1:_ZN6lucene6search7TopDocsD2Ev
libclucene-core.so.1:_ZN6lucene6search8FieldDocC1Eif
libclucene-core.so.1:_ZN6lucene6search8FieldDocC1EifPPNS_4util10ComparableE
libclucene-core.so.1:_ZN6lucene6search8FieldDocC2Eif
libclucene-core.so.1:_ZN6lucene6search8FieldDocC2EifPPNS_4util10ComparableE
libclucene-core.so.1:_ZN6lucene6search8FieldDocD0Ev
libclucene-core.so.1:_ZN6lucene6search8FieldDocD1Ev
libclucene-core.so.1:_ZN6lucene6search8FieldDocD2Ev
libclucene-core.so.1:_ZN6lucene6search8Searcher12getClassNameEv
libclucene-core.so.1:_ZN6lucene6search8Searcher13getSimilarityEv
libclucene-core.so.1:_ZN6lucene6search8Searcher13setSimilarityEPNS0_10SimilarityE
libclucene-core.so.1:_ZN6lucene6search8Searcher6searchEPNS0_5QueryE
libclucene-core.so.1:_ZN6lucene6search8Searcher6searchEPNS0_5QueryEPKNS0_4SortE
libclucene-core.so.1:_ZN6lucene6search8Searcher6searchEPNS0_5QueryEPNS0_6FilterE
libclucene-core.so.1:_ZN6lucene6search8Searcher6searchEPNS0_5QueryEPNS0_6FilterEPKNS0_4SortE
libclucene-core.so.1:_ZN6lucene6search8Searcher7_searchEPNS0_5QueryEPNS0_12HitCollectorE
libclucene-core.so.1:_ZN6lucene6search8SearcherC1Ev
libclucene-core.so.1:_ZN6lucene6search8SearcherC2Ev
libclucene-core.so.1:_ZN6lucene6search8SearcherD0Ev
libclucene-core.so.1:_ZN6lucene6search8SearcherD1Ev
libclucene-core.so.1:_ZN6lucene6search8SearcherD2Ev
libclucene-core.so.1:_ZN6lucene6search9SortField11FIELD_SCOREEv
libclucene-core.so.1:_ZN6lucene6search9SortField9FIELD_DOCEv
libclucene-core.so.1:_ZN6lucene6search9SortFieldC1EPKw
libclucene-core.so.1:_ZN6lucene6search9SortFieldC1EPKwPNS0_20SortComparatorSourceEb
libclucene-core.so.1:_ZN6lucene6search9SortFieldC1EPKwib
libclucene-core.so.1:_ZN6lucene6search9SortFieldC1ERKS1_
libclucene-core.so.1:_ZN6lucene6search9SortFieldC2EPKw
libclucene-core.so.1:_ZN6lucene6search9SortFieldC2EPKwPNS0_20SortComparatorSourceEb
libclucene-core.so.1:_ZN6lucene6search9SortFieldC2EPKwib
libclucene-core.so.1:_ZN6lucene6search9SortFieldC2ERKS1_
libclucene-core.so.1:_ZN6lucene6search9SortFieldD0Ev
libclucene-core.so.1:_ZN6lucene6search9SortFieldD1Ev
libclucene-core.so.1:_ZN6lucene6search9SortFieldD2Ev
libclucene-core.so.1:_ZN6lucene6search9TermQuery12getClassNameEv
libclucene-core.so.1:_ZN6lucene6search9TermQuery13_createWeightEPNS0_8SearcherE
libclucene-core.so.1:_ZN6lucene6search9TermQueryC1EPNS_5index4TermE
libclucene-core.so.1:_ZN6lucene6search9TermQueryC1ERKS1_
libclucene-core.so.1:_ZN6lucene6search9TermQueryC2EPNS_5index4TermE
libclucene-core.so.1:_ZN6lucene6search9TermQueryC2ERKS1_
libclucene-core.so.1:_ZN6lucene6search9TermQueryD0Ev
libclucene-core.so.1:_ZN6lucene6search9TermQueryD1Ev
libclucene-core.so.1:_ZN6lucene6search9TermQueryD2Ev
libclucene-core.so.1:_ZN6lucene8analysis10StopFilter13fillStopTableEPNS_4util9CLSetListIPwNS2_7Compare5WCharENS2_7Deletor7tcArrayEEEPPKwb
libclucene-core.so.1:_ZN6lucene8analysis10StopFilter27setEnablePositionIncrementsEb
libclucene-core.so.1:_ZN6lucene8analysis10StopFilter34getEnablePositionIncrementsDefaultEv
libclucene-core.so.1:_ZN6lucene8analysis10StopFilter34setEnablePositionIncrementsDefaultEb
libclucene-core.so.1:_ZN6lucene8analysis10StopFilter4nextEPNS0_5TokenE
libclucene-core.so.1:_ZN6lucene8analysis10StopFilterC1EPNS0_11TokenStreamEbPNS_4util9CLSetListIPwNS4_7Compare5WCharENS4_7Deletor7tcArrayEEEb
libclucene-core.so.1:_ZN6lucene8analysis10StopFilterC1EPNS0_11TokenStreamEbPPKwb
libclucene-core.so.1:_ZN6lucene8analysis10StopFilterC2EPNS0_11TokenStreamEbPNS_4util9CLSetListIPwNS4_7Compare5WCharENS4_7Deletor7tcArrayEEEb
libclucene-core.so.1:_ZN6lucene8analysis10StopFilterC2EPNS0_11TokenStreamEbPPKwb
libclucene-core.so.1:_ZN6lucene8analysis10StopFilterD0Ev
libclucene-core.so.1:_ZN6lucene8analysis10StopFilterD1Ev
libclucene-core.so.1:_ZN6lucene8analysis10StopFilterD2Ev
libclucene-core.so.1:_ZN6lucene8analysis11TokenFilter5closeEv
libclucene-core.so.1:_ZN6lucene8analysis11TokenFilterC1EPNS0_11TokenStreamEb
libclucene-core.so.1:_ZN6lucene8analysis11TokenFilterC2EPNS0_11TokenStreamEb
libclucene-core.so.1:_ZN6lucene8analysis11TokenFilterD0Ev
libclucene-core.so.1:_ZN6lucene8analysis11TokenFilterD1Ev
libclucene-core.so.1:_ZN6lucene8analysis11TokenFilterD2Ev
libclucene-core.so.1:_ZN6lucene8analysis11TokenStream4nextEv
libclucene-core.so.1:_ZN6lucene8analysis11TokenStream5resetEv
libclucene-core.so.1:_ZN6lucene8analysis11TokenStreamD0Ev
libclucene-core.so.1:_ZN6lucene8analysis11TokenStreamD1Ev
libclucene-core.so.1:_ZN6lucene8analysis11TokenStreamD2Ev
libclucene-core.so.1:_ZN6lucene8analysis12LengthFilter4nextEPNS0_5TokenE
libclucene-core.so.1:_ZN6lucene8analysis12LengthFilterC1EPNS0_11TokenStreamEmm
libclucene-core.so.1:_ZN6lucene8analysis12LengthFilterC2EPNS0_11TokenStreamEmm
libclucene-core.so.1:_ZN6lucene8analysis12StopAnalyzer11tokenStreamEPKwPNS_4util6ReaderE
libclucene-core.so.1:_ZN6lucene8analysis12StopAnalyzer19reusableTokenStreamEPKwPNS_4util6ReaderE
libclucene-core.so.1:_ZN6lucene8analysis12StopAnalyzerC1EPKcS3_
libclucene-core.so.1:_ZN6lucene8analysis12StopAnalyzerC1EPNS_4util6ReaderEb
libclucene-core.so.1:_ZN6lucene8analysis12StopAnalyzerC1EPPKw
libclucene-core.so.1:_ZN6lucene8analysis12StopAnalyzerC1Ev
libclucene-core.so.1:_ZN6lucene8analysis12StopAnalyzerC2EPKcS3_
libclucene-core.so.1:_ZN6lucene8analysis12StopAnalyzerC2EPNS_4util6ReaderEb
libclucene-core.so.1:_ZN6lucene8analysis12StopAnalyzerC2EPPKw
libclucene-core.so.1:_ZN6lucene8analysis12StopAnalyzerC2Ev
libclucene-core.so.1:_ZN6lucene8analysis12StopAnalyzerD0Ev
libclucene-core.so.1:_ZN6lucene8analysis12StopAnalyzerD1Ev
libclucene-core.so.1:_ZN6lucene8analysis12StopAnalyzerD2Ev
libclucene-core.so.1:_ZN6lucene8analysis13CharTokenizer4nextEPNS0_5TokenE
libclucene-core.so.1:_ZN6lucene8analysis13CharTokenizer5resetEPNS_4util6ReaderE
libclucene-core.so.1:_ZN6lucene8analysis13CharTokenizerC1EPNS_4util6ReaderE
libclucene-core.so.1:_ZN6lucene8analysis13CharTokenizerC2EPNS_4util6ReaderE
libclucene-core.so.1:_ZN6lucene8analysis13CharTokenizerD0Ev
libclucene-core.so.1:_ZN6lucene8analysis13CharTokenizerD1Ev
libclucene-core.so.1:_ZN6lucene8analysis13CharTokenizerD2Ev
libclucene-core.so.1:_ZN6lucene8analysis14SimpleAnalyzer11tokenStreamEPKwPNS_4util6ReaderE
libclucene-core.so.1:_ZN6lucene8analysis14SimpleAnalyzer19reusableTokenStreamEPKwPNS_4util6ReaderE
libclucene-core.so.1:_ZN6lucene8analysis14SimpleAnalyzerC1Ev
libclucene-core.so.1:_ZN6lucene8analysis14SimpleAnalyzerC2Ev
libclucene-core.so.1:_ZN6lucene8analysis14SimpleAnalyzerD0Ev
libclucene-core.so.1:_ZN6lucene8analysis14SimpleAnalyzerD1Ev
libclucene-core.so.1:_ZN6lucene8analysis14SimpleAnalyzerD2Ev
libclucene-core.so.1:_ZN6lucene8analysis14WordlistLoader10getWordSetEPKcS3_PNS_4util9CLSetListIPwNS4_7Compare5WCharENS4_7Deletor7tcArrayEEE
libclucene-core.so.1:_ZN6lucene8analysis14WordlistLoader10getWordSetEPNS_4util6ReaderEPNS2_9CLSetListIPwNS2_7Compare5WCharENS2_7Deletor7tcArrayEEEb
libclucene-core.so.1:_ZN6lucene8analysis15KeywordAnalyzer11tokenStreamEPKwPNS_4util6ReaderE
libclucene-core.so.1:_ZN6lucene8analysis15KeywordAnalyzer19reusableTokenStreamEPKwPNS_4util6ReaderE
libclucene-core.so.1:_ZN6lucene8analysis15KeywordAnalyzerC1Ev
libclucene-core.so.1:_ZN6lucene8analysis15KeywordAnalyzerC2Ev
libclucene-core.so.1:_ZN6lucene8analysis15KeywordAnalyzerD0Ev
libclucene-core.so.1:_ZN6lucene8analysis15KeywordAnalyzerD1Ev
libclucene-core.so.1:_ZN6lucene8analysis15KeywordAnalyzerD2Ev
libclucene-core.so.1:_ZN6lucene8analysis15LetterTokenizerC1EPNS_4util6ReaderE
libclucene-core.so.1:_ZN6lucene8analysis15LetterTokenizerC2EPNS_4util6ReaderE
libclucene-core.so.1:_ZN6lucene8analysis15LetterTokenizerD0Ev
libclucene-core.so.1:_ZN6lucene8analysis15LetterTokenizerD1Ev
libclucene-core.so.1:_ZN6lucene8analysis15LetterTokenizerD2Ev
libclucene-core.so.1:_ZN6lucene8analysis15LowerCaseFilter4nextEPNS0_5TokenE
libclucene-core.so.1:_ZN6lucene8analysis15LowerCaseFilterC1EPNS0_11TokenStreamEb
libclucene-core.so.1:_ZN6lucene8analysis15LowerCaseFilterC2EPNS0_11TokenStreamEb
libclucene-core.so.1:_ZN6lucene8analysis15LowerCaseFilterD0Ev
libclucene-core.so.1:_ZN6lucene8analysis15LowerCaseFilterD1Ev
libclucene-core.so.1:_ZN6lucene8analysis15LowerCaseFilterD2Ev
libclucene-core.so.1:_ZN6lucene8analysis16KeywordTokenizer4nextEPNS0_5TokenE
libclucene-core.so.1:_ZN6lucene8analysis16KeywordTokenizer5resetEPNS_4util6ReaderE
libclucene-core.so.1:_ZN6lucene8analysis16KeywordTokenizerC1EPNS_4util6ReaderEi
libclucene-core.so.1:_ZN6lucene8analysis16KeywordTokenizerC2EPNS_4util6ReaderEi
libclucene-core.so.1:_ZN6lucene8analysis16KeywordTokenizerD0Ev
libclucene-core.so.1:_ZN6lucene8analysis16KeywordTokenizerD1Ev
libclucene-core.so.1:_ZN6lucene8analysis16KeywordTokenizerD2Ev
libclucene-core.so.1:_ZN6lucene8analysis18LowerCaseTokenizerC1EPNS_4util6ReaderE
libclucene-core.so.1:_ZN6lucene8analysis18LowerCaseTokenizerC2EPNS_4util6ReaderE
libclucene-core.so.1:_ZN6lucene8analysis18LowerCaseTokenizerD0Ev
libclucene-core.so.1:_ZN6lucene8analysis18LowerCaseTokenizerD1Ev
libclucene-core.so.1:_ZN6lucene8analysis18LowerCaseTokenizerD2Ev
libclucene-core.so.1:_ZN6lucene8analysis18WhitespaceAnalyzer11tokenStreamEPKwPNS_4util6ReaderE
libclucene-core.so.1:_ZN6lucene8analysis18WhitespaceAnalyzer19reusableTokenStreamEPKwPNS_4util6ReaderE
libclucene-core.so.1:_ZN6lucene8analysis18WhitespaceAnalyzerC1Ev
libclucene-core.so.1:_ZN6lucene8analysis18WhitespaceAnalyzerC2Ev
libclucene-core.so.1:_ZN6lucene8analysis18WhitespaceAnalyzerD0Ev
libclucene-core.so.1:_ZN6lucene8analysis18WhitespaceAnalyzerD1Ev
libclucene-core.so.1:_ZN6lucene8analysis18WhitespaceAnalyzerD2Ev
libclucene-core.so.1:_ZN6lucene8analysis19WhitespaceTokenizerC1EPNS_4util6ReaderE
libclucene-core.so.1:_ZN6lucene8analysis19WhitespaceTokenizerC2EPNS_4util6ReaderE
libclucene-core.so.1:_ZN6lucene8analysis19WhitespaceTokenizerD0Ev
libclucene-core.so.1:_ZN6lucene8analysis19WhitespaceTokenizerD1Ev
libclucene-core.so.1:_ZN6lucene8analysis19WhitespaceTokenizerD2Ev
libclucene-core.so.1:_ZN6lucene8analysis21ISOLatin1AccentFilter4nextEPNS0_5TokenE
libclucene-core.so.1:_ZN6lucene8analysis21ISOLatin1AccentFilterC1EPNS0_11TokenStreamEb
libclucene-core.so.1:_ZN6lucene8analysis21ISOLatin1AccentFilterC2EPNS0_11TokenStreamEb
libclucene-core.so.1:_ZN6lucene8analysis21ISOLatin1AccentFilterD0Ev
libclucene-core.so.1:_ZN6lucene8analysis21ISOLatin1AccentFilterD1Ev
libclucene-core.so.1:_ZN6lucene8analysis21ISOLatin1AccentFilterD2Ev
libclucene-core.so.1:_ZN6lucene8analysis23PerFieldAnalyzerWrapper11addAnalyzerEPKwPNS0_8AnalyzerE
libclucene-core.so.1:_ZN6lucene8analysis23PerFieldAnalyzerWrapper11tokenStreamEPKwPNS_4util6ReaderE
libclucene-core.so.1:_ZN6lucene8analysis23PerFieldAnalyzerWrapper19reusableTokenStreamEPKwPNS_4util6ReaderE
libclucene-core.so.1:_ZN6lucene8analysis23PerFieldAnalyzerWrapper23getPositionIncrementGapEPKw
libclucene-core.so.1:_ZN6lucene8analysis23PerFieldAnalyzerWrapperC1EPNS0_8AnalyzerE
libclucene-core.so.1:_ZN6lucene8analysis23PerFieldAnalyzerWrapperC2EPNS0_8AnalyzerE
libclucene-core.so.1:_ZN6lucene8analysis23PerFieldAnalyzerWrapperD0Ev
libclucene-core.so.1:_ZN6lucene8analysis23PerFieldAnalyzerWrapperD1Ev
libclucene-core.so.1:_ZN6lucene8analysis23PerFieldAnalyzerWrapperD2Ev
libclucene-core.so.1:_ZN6lucene8analysis5Token10getPayloadEv
libclucene-core.so.1:_ZN6lucene8analysis5Token10growBufferEm
libclucene-core.so.1:_ZN6lucene8analysis5Token10setPayloadEPNS_5index7PayloadE
libclucene-core.so.1:_ZN6lucene8analysis5Token10termLengthEv
libclucene-core.so.1:_ZN6lucene8analysis5Token12bufferLengthEv
libclucene-core.so.1:_ZN6lucene8analysis5Token12setEndOffsetEi
libclucene-core.so.1:_ZN6lucene8analysis5Token13setTermLengthEi
libclucene-core.so.1:_ZN6lucene8analysis5Token14getDefaultTypeEv
libclucene-core.so.1:_ZN6lucene8analysis5Token14setStartOffsetEi
libclucene-core.so.1:_ZN6lucene8analysis5Token14termTextLengthEv
libclucene-core.so.1:_ZN6lucene8analysis5Token16resetTermTextLenEv
libclucene-core.so.1:_ZN6lucene8analysis5Token16resizeTermBufferEm
libclucene-core.so.1:_ZN6lucene8analysis5Token20setPositionIncrementEi
libclucene-core.so.1:_ZN6lucene8analysis5Token3setEPKwiiS3_
libclucene-core.so.1:_ZN6lucene8analysis5Token5clearEv
libclucene-core.so.1:_ZN6lucene8analysis5Token7setTextEPKwi
libclucene-core.so.1:_ZN6lucene8analysis5Token7setTypeEPKw
libclucene-core.so.1:_ZN6lucene8analysis5TokenC1EPKwiiS3_
libclucene-core.so.1:_ZN6lucene8analysis5TokenC1Ev
libclucene-core.so.1:_ZN6lucene8analysis5TokenC2EPKwiiS3_
libclucene-core.so.1:_ZN6lucene8analysis5TokenC2Ev
libclucene-core.so.1:_ZN6lucene8analysis5TokenD0Ev
libclucene-core.so.1:_ZN6lucene8analysis5TokenD1Ev
libclucene-core.so.1:_ZN6lucene8analysis5TokenD2Ev
libclucene-core.so.1:_ZN6lucene8analysis8Analyzer19reusableTokenStreamEPKwPNS_4util6ReaderE
libclucene-core.so.1:_ZN6lucene8analysis8Analyzer22getPreviousTokenStreamEv
libclucene-core.so.1:_ZN6lucene8analysis8Analyzer22setPreviousTokenStreamEPNS0_11TokenStreamE
libclucene-core.so.1:_ZN6lucene8analysis8Analyzer23getPositionIncrementGapEPKw
libclucene-core.so.1:_ZN6lucene8analysis8AnalyzerC1Ev
libclucene-core.so.1:_ZN6lucene8analysis8AnalyzerC2Ev
libclucene-core.so.1:_ZN6lucene8analysis8AnalyzerD0Ev
libclucene-core.so.1:_ZN6lucene8analysis8AnalyzerD1Ev
libclucene-core.so.1:_ZN6lucene8analysis8AnalyzerD2Ev
libclucene-core.so.1:_ZN6lucene8analysis8standard14StandardFilter4nextEPNS0_5TokenE
libclucene-core.so.1:_ZN6lucene8analysis8standard14StandardFilterC1EPNS0_11TokenStreamEb
libclucene-core.so.1:_ZN6lucene8analysis8standard14StandardFilterC2EPNS0_11TokenStreamEb
libclucene-core.so.1:_ZN6lucene8analysis8standard14StandardFilterD0Ev
libclucene-core.so.1:_ZN6lucene8analysis8standard14StandardFilterD1Ev
libclucene-core.so.1:_ZN6lucene8analysis8standard14StandardFilterD2Ev
libclucene-core.so.1:_ZN6lucene8analysis8standard16StandardAnalyzer11tokenStreamEPKwPNS_4util6ReaderE
libclucene-core.so.1:_ZN6lucene8analysis8standard16StandardAnalyzer19reusableTokenStreamEPKwPNS_4util6ReaderE
libclucene-core.so.1:_ZN6lucene8analysis8standard16StandardAnalyzerC1EPKcS4_
libclucene-core.so.1:_ZN6lucene8analysis8standard16StandardAnalyzerC1EPNS_4util6ReaderEb
libclucene-core.so.1:_ZN6lucene8analysis8standard16StandardAnalyzerC1EPPKw
libclucene-core.so.1:_ZN6lucene8analysis8standard16StandardAnalyzerC1Ev
libclucene-core.so.1:_ZN6lucene8analysis8standard16StandardAnalyzerC2EPKcS4_
libclucene-core.so.1:_ZN6lucene8analysis8standard16StandardAnalyzerC2EPNS_4util6ReaderEb
libclucene-core.so.1:_ZN6lucene8analysis8standard16StandardAnalyzerC2EPPKw
libclucene-core.so.1:_ZN6lucene8analysis8standard16StandardAnalyzerC2Ev
libclucene-core.so.1:_ZN6lucene8analysis8standard16StandardAnalyzerD0Ev
libclucene-core.so.1:_ZN6lucene8analysis8standard16StandardAnalyzerD1Ev
libclucene-core.so.1:_ZN6lucene8analysis8standard16StandardAnalyzerD2Ev
libclucene-core.so.1:_ZN6lucene8analysis8standard17StandardTokenizer10ReadDottedEPNS_4util12StringBufferENS1_10TokenTypesEPNS0_5TokenE
libclucene-core.so.1:_ZN6lucene8analysis8standard17StandardTokenizer10ReadNumberEPKwwPNS0_5TokenE
libclucene-core.so.1:_ZN6lucene8analysis8standard17StandardTokenizer10unReadCharEv
libclucene-core.so.1:_ZN6lucene8analysis8standard17StandardTokenizer11ReadCompanyEPNS_4util12StringBufferEPNS0_5TokenE
libclucene-core.so.1:_ZN6lucene8analysis8standard17StandardTokenizer12ReadAlphaNumEwPNS0_5TokenE
libclucene-core.so.1:_ZN6lucene8analysis8standard17StandardTokenizer14ReadApostropheEPNS_4util12StringBufferEPNS0_5TokenE
libclucene-core.so.1:_ZN6lucene8analysis8standard17StandardTokenizer4nextEPNS0_5TokenE
libclucene-core.so.1:_ZN6lucene8analysis8standard17StandardTokenizer5resetEPNS_4util6ReaderE
libclucene-core.so.1:_ZN6lucene8analysis8standard17StandardTokenizer6ReadAtEPNS_4util12StringBufferEPNS0_5TokenE
libclucene-core.so.1:_ZN6lucene8analysis8standard17StandardTokenizer7ReadCJKEwPNS0_5TokenE
libclucene-core.so.1:_ZN6lucene8analysis8standard17StandardTokenizer8readCharEv
libclucene-core.so.1:_ZN6lucene8analysis8standard17StandardTokenizerC1EPNS_4util14BufferedReaderEb
libclucene-core.so.1:_ZN6lucene8analysis8standard17StandardTokenizerC2EPNS_4util14BufferedReaderEb
libclucene-core.so.1:_ZN6lucene8analysis8standard17StandardTokenizerD0Ev
libclucene-core.so.1:_ZN6lucene8analysis8standard17StandardTokenizerD1Ev
libclucene-core.so.1:_ZN6lucene8analysis8standard17StandardTokenizerD2Ev
libclucene-core.so.1:_ZN6lucene8analysis9Tokenizer5closeEv
libclucene-core.so.1:_ZN6lucene8analysis9Tokenizer5resetEPNS_4util6ReaderE
libclucene-core.so.1:_ZN6lucene8analysis9TokenizerC1EPNS_4util6ReaderE
libclucene-core.so.1:_ZN6lucene8analysis9TokenizerC1Ev
libclucene-core.so.1:_ZN6lucene8analysis9TokenizerC2EPNS_4util6ReaderE
libclucene-core.so.1:_ZN6lucene8analysis9TokenizerC2Ev
libclucene-core.so.1:_ZN6lucene8analysis9TokenizerD0Ev
libclucene-core.so.1:_ZN6lucene8analysis9TokenizerD1Ev
libclucene-core.so.1:_ZN6lucene8analysis9TokenizerD2Ev
libclucene-core.so.1:_ZN6lucene8document11NumberTools12longToStringEl
libclucene-core.so.1:_ZN6lucene8document11NumberTools12stringToLongEPKw
libclucene-core.so.1:_ZN6lucene8document11NumberToolsD0Ev
libclucene-core.so.1:_ZN6lucene8document11NumberToolsD1Ev
libclucene-core.so.1:_ZN6lucene8document11NumberToolsD2Ev
libclucene-core.so.1:_ZN6lucene8document13FieldSelectorD0Ev
libclucene-core.so.1:_ZN6lucene8document13FieldSelectorD1Ev
libclucene-core.so.1:_ZN6lucene8document13FieldSelectorD2Ev
libclucene-core.so.1:_ZN6lucene8document16MapFieldSelector3addEPKwNS0_13FieldSelector19FieldSelectorResultE
libclucene-core.so.1:_ZN6lucene8document16MapFieldSelectorC1ERNS_4util9ArrayBaseIPKwEE
libclucene-core.so.1:_ZN6lucene8document16MapFieldSelectorC1ERSt6vectorIPKwSaIS4_EE
libclucene-core.so.1:_ZN6lucene8document16MapFieldSelectorC1Ev
libclucene-core.so.1:_ZN6lucene8document16MapFieldSelectorC2ERNS_4util9ArrayBaseIPKwEE
libclucene-core.so.1:_ZN6lucene8document16MapFieldSelectorC2ERSt6vectorIPKwSaIS4_EE
libclucene-core.so.1:_ZN6lucene8document16MapFieldSelectorC2Ev
libclucene-core.so.1:_ZN6lucene8document16MapFieldSelectorD0Ev
libclucene-core.so.1:_ZN6lucene8document16MapFieldSelectorD1Ev
libclucene-core.so.1:_ZN6lucene8document16MapFieldSelectorD2Ev
libclucene-core.so.1:_ZN6lucene8document22LoadFirstFieldSelectorD0Ev
libclucene-core.so.1:_ZN6lucene8document22LoadFirstFieldSelectorD1Ev
libclucene-core.so.1:_ZN6lucene8document22LoadFirstFieldSelectorD2Ev
libclucene-core.so.1:_ZN6lucene8document24DocumentFieldEnumeration11nextElementEv
libclucene-core.so.1:_ZN6lucene8document24DocumentFieldEnumerationC1EN9__gnu_cxx17__normal_iteratorIPPNS0_5FieldESt6vectorIS5_SaIS5_EEEESA_
libclucene-core.so.1:_ZN6lucene8document24DocumentFieldEnumerationC2EN9__gnu_cxx17__normal_iteratorIPPNS0_5FieldESt6vectorIS5_SaIS5_EEEESA_
libclucene-core.so.1:_ZN6lucene8document24DocumentFieldEnumerationD0Ev
libclucene-core.so.1:_ZN6lucene8document24DocumentFieldEnumerationD1Ev
libclucene-core.so.1:_ZN6lucene8document24DocumentFieldEnumerationD2Ev
libclucene-core.so.1:_ZN6lucene8document5Field11_resetValueEv
libclucene-core.so.1:_ZN6lucene8document5Field11binaryValueEv
libclucene-core.so.1:_ZN6lucene8document5Field11readerValueEv
libclucene-core.so.1:_ZN6lucene8document5Field11stringValueEv
libclucene-core.so.1:_ZN6lucene8document5Field12getClassNameEv
libclucene-core.so.1:_ZN6lucene8document5Field12setOmitNormsEb
libclucene-core.so.1:_ZN6lucene8document5Field16tokenStreamValueEv
libclucene-core.so.1:_ZN6lucene8document5Field8setBoostEf
libclucene-core.so.1:_ZN6lucene8document5Field8setValueEPNS_4util10ValueArrayIhEE
libclucene-core.so.1:_ZN6lucene8document5Field8setValueEPNS_4util6ReaderE
libclucene-core.so.1:_ZN6lucene8document5Field8setValueEPNS_8analysis11TokenStreamE
libclucene-core.so.1:_ZN6lucene8document5Field8setValueEPwb
libclucene-core.so.1:_ZN6lucene8document5Field8toStringEv
libclucene-core.so.1:_ZN6lucene8document5Field9setConfigEj
libclucene-core.so.1:_ZN6lucene8document5FieldC1EPKwPNS_4util10ValueArrayIhEEib
libclucene-core.so.1:_ZN6lucene8document5FieldC1EPKwPNS_4util6ReaderEi
libclucene-core.so.1:_ZN6lucene8document5FieldC1EPKwS3_ib
libclucene-core.so.1:_ZN6lucene8document5FieldC1EPKwi
libclucene-core.so.1:_ZN6lucene8document5FieldC2EPKwPNS_4util10ValueArrayIhEEib
libclucene-core.so.1:_ZN6lucene8document5FieldC2EPKwPNS_4util6ReaderEi
libclucene-core.so.1:_ZN6lucene8document5FieldC2EPKwS3_ib
libclucene-core.so.1:_ZN6lucene8document5FieldC2EPKwi
libclucene-core.so.1:_ZN6lucene8document5FieldD0Ev
libclucene-core.so.1:_ZN6lucene8document5FieldD1Ev
libclucene-core.so.1:_ZN6lucene8document5FieldD2Ev
libclucene-core.so.1:_ZN6lucene8document8Document11removeFieldEPKw
libclucene-core.so.1:_ZN6lucene8document8Document12removeFieldsEPKw
libclucene-core.so.1:_ZN6lucene8document8Document3addERNS0_5FieldE
libclucene-core.so.1:_ZN6lucene8document8Document5clearEv
libclucene-core.so.1:_ZN6lucene8document8Document6fieldsEv
libclucene-core.so.1:_ZN6lucene8document8Document8setBoostEf
libclucene-core.so.1:_ZN6lucene8document8Document9getValuesEPKw
libclucene-core.so.1:_ZN6lucene8document8DocumentC1Ev
libclucene-core.so.1:_ZN6lucene8document8DocumentC2Ev
libclucene-core.so.1:_ZN6lucene8document8DocumentD0Ev
libclucene-core.so.1:_ZN6lucene8document8DocumentD1Ev
libclucene-core.so.1:_ZN6lucene8document8DocumentD2Ev
libclucene-core.so.1:_ZN6lucene8document9DateField12stringToTimeEPKw
libclucene-core.so.1:_ZN6lucene8document9DateField12timeToStringEl
libclucene-core.so.1:_ZN6lucene8document9DateField12timeToStringElPw
libclucene-core.so.1:_ZN6lucene8document9DateFieldD0Ev
libclucene-core.so.1:_ZN6lucene8document9DateFieldD1Ev
libclucene-core.so.1:_ZN6lucene8document9DateFieldD2Ev
libclucene-core.so.1:_ZN6lucene8document9DateTools10strCatDateEPwii
libclucene-core.so.1:_ZN6lucene8document9DateTools12getISOFormatEl
libclucene-core.so.1:_ZN6lucene8document9DateTools12getISOFormatEthhhhht
libclucene-core.so.1:_ZN6lucene8document9DateTools12stringToDateEPKw
libclucene-core.so.1:_ZN6lucene8document9DateTools12stringToTimeEPKw
libclucene-core.so.1:_ZN6lucene8document9DateTools12timeToStringElNS1_10ResolutionE
libclucene-core.so.1:_ZN6lucene8document9DateTools12timeToStringElNS1_10ResolutionEPwm
libclucene-core.so.1:_ZN6lucene8document9DateTools17timeMakeInclusiveEl
libclucene-core.so.1:_ZN6lucene8document9DateTools7getTimeEthhhhht
libclucene-core.so.1:_ZN6lucene8document9DateToolsD0Ev
libclucene-core.so.1:_ZN6lucene8document9DateToolsD1Ev
libclucene-core.so.1:_ZN6lucene8document9DateToolsD2Ev
libclucene-core.so.1:_ZNK6lucene11queryParser10QueryToken8toStringEv
libclucene-core.so.1:_ZNK6lucene11queryParser11QueryParser11getAnalyzerEv
libclucene-core.so.1:_ZNK6lucene11queryParser11QueryParser13getPhraseSlopEv
libclucene-core.so.1:_ZNK6lucene11queryParser11QueryParser14getFuzzyMinSimEv
libclucene-core.so.1:_ZNK6lucene11queryParser11QueryParser17getDateResolutionEPKw
libclucene-core.so.1:_ZNK6lucene11queryParser11QueryParser18getDefaultOperatorEv
libclucene-core.so.1:_ZNK6lucene11queryParser11QueryParser19getUseOldRangeQueryEv
libclucene-core.so.1:_ZNK6lucene11queryParser11QueryParser20getFuzzyPrefixLengthEv
libclucene-core.so.1:_ZNK6lucene11queryParser11QueryParser23getAllowLeadingWildcardEv
libclucene-core.so.1:_ZNK6lucene11queryParser11QueryParser25getLowercaseExpandedTermsEv
libclucene-core.so.1:_ZNK6lucene11queryParser11QueryParser27getEnablePositionIncrementsEv
libclucene-core.so.1:_ZNK6lucene11queryParser11QueryParser8getFieldEv
libclucene-core.so.1:_ZNK6lucene11queryParser6legacy15QueryParserBase17discardEscapeCharEPw
libclucene-core.so.1:_ZNK6lucene11queryParser6legacy15QueryParserBase18getDefaultOperatorEv
libclucene-core.so.1:_ZNK6lucene11queryParser6legacy15QueryParserBase25getLowercaseExpandedTermsEv
libclucene-core.so.1:_ZNK6lucene4util11NamedObject10instanceOfEPKc
libclucene-core.so.1:_ZNK6lucene4util6BitSet10nextSetBitEi
libclucene-core.so.1:_ZNK6lucene4util6BitSet4sizeEv
libclucene-core.so.1:_ZNK6lucene4util6BitSet5cloneEv
libclucene-core.so.1:_ZNK6lucene4util6Equals4CharclEPKcS4_
libclucene-core.so.1:_ZNK6lucene4util6Equals5Int32clEii
libclucene-core.so.1:_ZNK6lucene4util6Equals5WCharclEPKwS4_
libclucene-core.so.1:_ZNK6lucene4util7Compare4Char13getObjectNameEv
libclucene-core.so.1:_ZNK6lucene4util7Compare4Char8getValueEv
libclucene-core.so.1:_ZNK6lucene4util7Compare4CharclEPKc
libclucene-core.so.1:_ZNK6lucene4util7Compare4CharclEPKcS4_
libclucene-core.so.1:_ZNK6lucene4util7Compare5Float13getObjectNameEv
libclucene-core.so.1:_ZNK6lucene4util7Compare5Float8getValueEv
libclucene-core.so.1:_ZNK6lucene4util7Compare5Int3213getObjectNameEv
libclucene-core.so.1:_ZNK6lucene4util7Compare5Int328getValueEv
libclucene-core.so.1:_ZNK6lucene4util7Compare5Int32clEi
libclucene-core.so.1:_ZNK6lucene4util7Compare5Int32clEii
libclucene-core.so.1:_ZNK6lucene4util7Compare5WChar13getObjectNameEv
libclucene-core.so.1:_ZNK6lucene4util7Compare5WChar8getValueEv
libclucene-core.so.1:_ZNK6lucene4util7Compare5WCharclEPKw
libclucene-core.so.1:_ZNK6lucene4util7Compare5WCharclEPKwS4_
libclucene-core.so.1:_ZNK6lucene5index10FieldInfos10hasVectorsEv
libclucene-core.so.1:_ZNK6lucene5index10FieldInfos11fieldNumberEPKw
libclucene-core.so.1:_ZNK6lucene5index10FieldInfos4sizeEv
libclucene-core.so.1:_ZNK6lucene5index10FieldInfos5writeEPNS_5store11IndexOutputE
libclucene-core.so.1:_ZNK6lucene5index10FieldInfos5writeEPNS_5store9DirectoryEPKc
libclucene-core.so.1:_ZNK6lucene5index10FieldInfos9fieldInfoEPKw
libclucene-core.so.1:_ZNK6lucene5index10FieldInfos9fieldInfoEi
libclucene-core.so.1:_ZNK6lucene5index10FieldInfos9fieldNameEi
libclucene-core.so.1:_ZNK6lucene5index11IndexWriter14getMergeFactorEv
libclucene-core.so.1:_ZNK6lucene5index11IndexWriter15getMaxMergeDocsEv
libclucene-core.so.1:_ZNK6lucene5index11IndexWriter17getLogMergePolicyEv
libclucene-core.so.1:_ZNK6lucene5index11MergePolicy8OneMerge13getObjectNameEv
libclucene-core.so.1:_ZNK6lucene5index11MergePolicy8OneMerge9segStringB5cxx11EPNS_5store9DirectoryE
libclucene-core.so.1:_ZNK6lucene5index11MultiReader11readerIndexEi
libclucene-core.so.1:_ZNK6lucene5index11MultiReader12hasDeletionsEv
libclucene-core.so.1:_ZNK6lucene5index11MultiReader13getObjectNameEv
libclucene-core.so.1:_ZNK6lucene5index11MultiReader13getSubReadersEv
libclucene-core.so.1:_ZNK6lucene5index11MultiReader6maxDocEv
libclucene-core.so.1:_ZNK6lucene5index13IndexModifier10assureOpenEv
libclucene-core.so.1:_ZNK6lucene5index13IndexModifier17getCurrentVersionEv
libclucene-core.so.1:_ZNK6lucene5index13IndexModifier8toStringB5cxx11Ev
libclucene-core.so.1:_ZNK6lucene5index14LogMergePolicy10instanceOfEPKc
libclucene-core.so.1:_ZNK6lucene5index14LogMergePolicy13getObjectNameEv
libclucene-core.so.1:_ZNK6lucene5index16TermVectorMapper17isIgnoringOffsetsEv
libclucene-core.so.1:_ZNK6lucene5index16TermVectorMapper19isIgnoringPositionsEv
libclucene-core.so.1:_ZNK6lucene5index17LogDocMergePolicy13getObjectNameEv
libclucene-core.so.1:_ZNK6lucene5index17TermVectorsReader4sizeEv
libclucene-core.so.1:_ZNK6lucene5index17TermVectorsReader5cloneEv
libclucene-core.so.1:_ZNK6lucene5index20SerialMergeScheduler13getObjectNameEv
libclucene-core.so.1:_ZNK6lucene5index20TermVectorOffsetInfo12getEndOffsetEv
libclucene-core.so.1:_ZNK6lucene5index20TermVectorOffsetInfo14getStartOffsetEv
libclucene-core.so.1:_ZNK6lucene5index20TermVectorOffsetInfo8hashCodeEv
libclucene-core.so.1:_ZNK6lucene5index21MultipleTermPositions16getPayloadLengthEv
libclucene-core.so.1:_ZNK6lucene5index21MultipleTermPositions18isPayloadAvailableEv
libclucene-core.so.1:_ZNK6lucene5index21MultipleTermPositions3docEv
libclucene-core.so.1:_ZNK6lucene5index21MultipleTermPositions4freqEv
libclucene-core.so.1:_ZNK6lucene5index22LogByteSizeMergePolicy13getObjectNameEv
libclucene-core.so.1:_ZNK6lucene5index32KeepOnlyLastCommitDeletionPolicy13getObjectNameEv
libclucene-core.so.1:_ZNK6lucene5index4Term10textLengthEv
libclucene-core.so.1:_ZNK6lucene5index4Term4textEv
libclucene-core.so.1:_ZNK6lucene5index4Term5fieldEv
libclucene-core.so.1:_ZNK6lucene5index4Term6equalsEPKS1_
libclucene-core.so.1:_ZNK6lucene5index4Term8toStringEv
libclucene-core.so.1:_ZNK6lucene5index4Term9compareToEPKS1_
libclucene-core.so.1:_ZNK6lucene5index7Payload11toByteArrayEv
libclucene-core.so.1:_ZNK6lucene5index7Payload5cloneEv
libclucene-core.so.1:_ZNK6lucene5index7Payload6byteAtEi
libclucene-core.so.1:_ZNK6lucene5index7Payload6copyToEPhi
libclucene-core.so.1:_ZNK6lucene5index7Payload6lengthEv
libclucene-core.so.1:_ZNK6lucene5index7Payload7getDataEv
libclucene-core.so.1:_ZNK6lucene5index7Payload9getOffsetEv
libclucene-core.so.1:_ZNK6lucene5store11FSDirectory10fileExistsEPKc
libclucene-core.so.1:_ZNK6lucene5store11FSDirectory10fileLengthEPKc
libclucene-core.so.1:_ZNK6lucene5store11FSDirectory10getDirNameEv
libclucene-core.so.1:_ZNK6lucene5store11FSDirectory10getUseMMapEv
libclucene-core.so.1:_ZNK6lucene5store11FSDirectory10priv_getFNEPcPKc
libclucene-core.so.1:_ZNK6lucene5store11FSDirectory12FSIndexInput5cloneEv
libclucene-core.so.1:_ZNK6lucene5store11FSDirectory12fileModifiedEPKc
libclucene-core.so.1:_ZNK6lucene5store11FSDirectory13FSIndexOutput6lengthEv
libclucene-core.so.1:_ZNK6lucene5store11FSDirectory13getLockPrefixEv
libclucene-core.so.1:_ZNK6lucene5store11FSDirectory13getObjectNameEv
libclucene-core.so.1:_ZNK6lucene5store11FSDirectory4listEPSt6vectorINSt7__cxx1112basic_stringIcSt11char_traitsIcESaIcEEESaIS8_EE
libclucene-core.so.1:_ZNK6lucene5store11FSDirectory8toStringB5cxx11Ev
libclucene-core.so.1:_ZNK6lucene5store12RAMDirectory10fileExistsEPKc
libclucene-core.so.1:_ZNK6lucene5store12RAMDirectory10fileLengthEPKc
libclucene-core.so.1:_ZNK6lucene5store12RAMDirectory12fileModifiedEPKc
libclucene-core.so.1:_ZNK6lucene5store12RAMDirectory13getObjectNameEv
libclucene-core.so.1:_ZNK6lucene5store12RAMDirectory4listEPSt6vectorINSt7__cxx1112basic_stringIcSt11char_traitsIcESaIcEEESaIS8_EE
libclucene-core.so.1:_ZNK6lucene5store12RAMDirectory8toStringB5cxx11Ev
libclucene-core.so.1:_ZNK6lucene5store14RAMInputStream13getObjectNameEv
libclucene-core.so.1:_ZNK6lucene5store14RAMInputStream14getFilePointerEv
libclucene-core.so.1:_ZNK6lucene5store14RAMInputStream16getDirectoryTypeEv
libclucene-core.so.1:_ZNK6lucene5store14RAMInputStream5cloneEv
libclucene-core.so.1:_ZNK6lucene5store14RAMInputStream6lengthEv
libclucene-core.so.1:_ZNK6lucene5store15RAMOutputStream14getFilePointerEv
libclucene-core.so.1:_ZNK6lucene5store15RAMOutputStream6lengthEv
libclucene-core.so.1:_ZNK6lucene5store18BufferedIndexInput14getFilePointerEv
libclucene-core.so.1:_ZNK6lucene5store19BufferedIndexOutput14getFilePointerEv
libclucene-core.so.1:_ZNK6lucene5store7RAMFile10numBuffersEv
libclucene-core.so.1:_ZNK6lucene5store7RAMFile14getSizeInBytesEv
libclucene-core.so.1:_ZNK6lucene5store9Directory4listERSt6vectorINSt7__cxx1112basic_stringIcSt11char_traitsIcESaIcEEESaIS8_EE
libclucene-core.so.1:_ZNK6lucene5store9Directory4listEv
libclucene-core.so.1:_ZNK6lucene6search10DateFilter5cloneEv
libclucene-core.so.1:_ZNK6lucene6search10FuzzyQuery13getObjectNameEv
libclucene-core.so.1:_ZNK6lucene6search10FuzzyQuery15getPrefixLengthEv
libclucene-core.so.1:_ZNK6lucene6search10FuzzyQuery16getMinSimilarityEv
libclucene-core.so.1:_ZNK6lucene6search10FuzzyQuery5cloneEv
libclucene-core.so.1:_ZNK6lucene6search10FuzzyQuery6equalsEPNS0_5QueryE
libclucene-core.so.1:_ZNK6lucene6search10FuzzyQuery8hashCodeEv
libclucene-core.so.1:_ZNK6lucene6search10FuzzyQuery8toStringEPKw
libclucene-core.so.1:_ZNK6lucene6search10RangeQuery11isInclusiveEv
libclucene-core.so.1:_ZNK6lucene6search10RangeQuery12getLowerTermEb
libclucene-core.so.1:_ZNK6lucene6search10RangeQuery12getUpperTermEb
libclucene-core.so.1:_ZNK6lucene6search10RangeQuery13getObjectNameEv
libclucene-core.so.1:_ZNK6lucene6search10RangeQuery5cloneEv
libclucene-core.so.1:_ZNK6lucene6search10RangeQuery6equalsEPNS0_5QueryE
libclucene-core.so.1:_ZNK6lucene6search10RangeQuery8getFieldEv
libclucene-core.so.1:_ZNK6lucene6search10RangeQuery8hashCodeEv
libclucene-core.so.1:_ZNK6lucene6search10RangeQuery8toStringEPKw
libclucene-core.so.1:_ZNK6lucene6search11Explanation14getDescriptionEv
libclucene-core.so.1:_ZNK6lucene6search11Explanation16getDetailsLengthEv
libclucene-core.so.1:_ZNK6lucene6search11Explanation5cloneEv
libclucene-core.so.1:_ZNK6lucene6search11Explanation7isMatchEv
libclucene-core.so.1:_ZNK6lucene6search11Explanation8getValueEv
libclucene-core.so.1:_ZNK6lucene6search11PhraseQuery12extractTermsEPSt3setIPNS_5index4TermENS3_21Term_UnorderedCompareESaIS5_EE
libclucene-core.so.1:_ZNK6lucene6search11PhraseQuery12getFieldNameEv
libclucene-core.so.1:_ZNK6lucene6search11PhraseQuery12getPositionsERNS_4util10ValueArrayIiEE
libclucene-core.so.1:_ZNK6lucene6search11PhraseQuery13getObjectNameEv
libclucene-core.so.1:_ZNK6lucene6search11PhraseQuery5cloneEv
libclucene-core.so.1:_ZNK6lucene6search11PhraseQuery6equalsEPNS0_5QueryE
libclucene-core.so.1:_ZNK6lucene6search11PhraseQuery7getSlopEv
libclucene-core.so.1:_ZNK6lucene6search11PhraseQuery8getTermsEv
libclucene-core.so.1:_ZNK6lucene6search11PhraseQuery8hashCodeEv
libclucene-core.so.1:_ZNK6lucene6search11PhraseQuery8toStringEPKw
libclucene-core.so.1:_ZNK6lucene6search11PrefixQuery13getObjectNameEv
libclucene-core.so.1:_ZNK6lucene6search11PrefixQuery5cloneEv
libclucene-core.so.1:_ZNK6lucene6search11PrefixQuery6equalsEPNS0_5QueryE
libclucene-core.so.1:_ZNK6lucene6search11PrefixQuery8hashCodeEv
libclucene-core.so.1:_ZNK6lucene6search11PrefixQuery8toStringEPKw
libclucene-core.so.1:_ZNK6lucene6search11QueryFilter5cloneEv
libclucene-core.so.1:_ZNK6lucene6search11RangeFilter5cloneEv
libclucene-core.so.1:_ZNK6lucene6search12BooleanQuery10getClausesEPPNS0_13BooleanClauseE
libclucene-core.so.1:_ZNK6lucene6search12BooleanQuery10getClausesEv
libclucene-core.so.1:_ZNK6lucene6search12BooleanQuery12extractTermsEPSt3setIPNS_5index4TermENS3_21Term_UnorderedCompareESaIS5_EE
libclucene-core.so.1:_ZNK6lucene6search12BooleanQuery13getObjectNameEv
libclucene-core.so.1:_ZNK6lucene6search12BooleanQuery14getClauseCountEv
libclucene-core.so.1:_ZNK6lucene6search12BooleanQuery5cloneEv
libclucene-core.so.1:_ZNK6lucene6search12BooleanQuery6equalsEPNS0_5QueryE
libclucene-core.so.1:_ZNK6lucene6search12BooleanQuery8hashCodeEv
libclucene-core.so.1:_ZNK6lucene6search12BooleanQuery8toStringEPKw
libclucene-core.so.1:_ZNK6lucene6search12PrefixFilter5cloneEv
libclucene-core.so.1:_ZNK6lucene6search12PrefixFilter9getPrefixEv
libclucene-core.so.1:_ZNK6lucene6search13BooleanClause10isRequiredEv
libclucene-core.so.1:_ZNK6lucene6search13BooleanClause12isProhibitedEv
libclucene-core.so.1:_ZNK6lucene6search13BooleanClause5cloneEv
libclucene-core.so.1:_ZNK6lucene6search13BooleanClause6equalsEPKS1_
libclucene-core.so.1:_ZNK6lucene6search13BooleanClause8getOccurEv
libclucene-core.so.1:_ZNK6lucene6search13BooleanClause8getQueryEv
libclucene-core.so.1:_ZNK6lucene6search13BooleanClause8hashCodeEv
libclucene-core.so.1:_ZNK6lucene6search13BooleanClause8toStringEv
libclucene-core.so.1:_ZNK6lucene6search13ChainedFilter5cloneEv
libclucene-core.so.1:_ZNK6lucene6search13FuzzyTermEnum13getObjectNameEv
libclucene-core.so.1:_ZNK6lucene6search13FuzzyTermEnum20calculateMaxDistanceEm
libclucene-core.so.1:_ZNK6lucene6search13IndexSearcher13getObjectNameEv
libclucene-core.so.1:_ZNK6lucene6search13IndexSearcher6maxDocEv
libclucene-core.so.1:_ZNK6lucene6search13IndexSearcher7docFreqEPKNS_5index4TermE
libclucene-core.so.1:_ZNK6lucene6search13MultiSearcher11subSearcherEi
libclucene-core.so.1:_ZNK6lucene6search13MultiSearcher13searcherIndexEi
libclucene-core.so.1:_ZNK6lucene6search13MultiSearcher6maxDocEv
libclucene-core.so.1:_ZNK6lucene6search13MultiSearcher6subDocEi
libclucene-core.so.1:_ZNK6lucene6search13MultiSearcher7docFreqEPKNS_5index4TermE
libclucene-core.so.1:_ZNK6lucene6search13WildcardQuery13getObjectNameEv
libclucene-core.so.1:_ZNK6lucene6search13WildcardQuery5cloneEv
libclucene-core.so.1:_ZNK6lucene6search13WildcardQuery6equalsEPNS0_5QueryE
libclucene-core.so.1:_ZNK6lucene6search13WildcardQuery8hashCodeEv
libclucene-core.so.1:_ZNK6lucene6search14BooleanScorer23docEv
libclucene-core.so.1:_ZNK6lucene6search14MultiTermQuery7getTermEb
libclucene-core.so.1:_ZNK6lucene6search14MultiTermQuery8toStringEPKw
libclucene-core.so.1:_ZNK6lucene6search14WildcardFilter5cloneEv
libclucene-core.so.1:_ZNK6lucene6search15SpanQueryFilter5cloneEv
libclucene-core.so.1:_ZNK6lucene6search16FilteredTermEnum7docFreqEv
libclucene-core.so.1:_ZNK6lucene6search16MultiPhraseQuery12extractTermsEPSt3setIPNS_5index4TermENS3_21Term_UnorderedCompareESaIS5_EE
libclucene-core.so.1:_ZNK6lucene6search16MultiPhraseQuery12getPositionsERNS_4util10ValueArrayIiEE
libclucene-core.so.1:_ZNK6lucene6search16MultiPhraseQuery5cloneEv
libclucene-core.so.1:_ZNK6lucene6search16MultiPhraseQuery6equalsEPNS0_5QueryE
libclucene-core.so.1:_ZNK6lucene6search16MultiPhraseQuery7getSlopEv
libclucene-core.so.1:_ZNK6lucene6search16MultiPhraseQuery8hashCodeEv
libclucene-core.so.1:_ZNK6lucene6search16MultiPhraseQuery8toStringEPKw
libclucene-core.so.1:_ZNK6lucene6search16WildcardTermEnum13getObjectNameEv
libclucene-core.so.1:_ZNK6lucene6search17MatchAllDocsQuery12extractTermsEPSt3setIPNS_5index4TermENS3_21Term_UnorderedCompareESaIS5_EE
libclucene-core.so.1:_ZNK6lucene6search17MatchAllDocsQuery13getObjectNameEv
libclucene-core.so.1:_ZNK6lucene6search17MatchAllDocsQuery14MatchAllScorer3docEv
libclucene-core.so.1:_ZNK6lucene6search17MatchAllDocsQuery5cloneEv
libclucene-core.so.1:_ZNK6lucene6search17MatchAllDocsQuery6equalsEPNS0_5QueryE
libclucene-core.so.1:_ZNK6lucene6search17MatchAllDocsQuery8hashCodeEv
libclucene-core.so.1:_ZNK6lucene6search17MatchAllDocsQuery8toStringEPKw
libclucene-core.so.1:_ZNK6lucene6search18ComplexExplanation5cloneEv
libclucene-core.so.1:_ZNK6lucene6search18ComplexExplanation7isMatchEv
libclucene-core.so.1:_ZNK6lucene6search18ComplexExplanation8getMatchEv
libclucene-core.so.1:_ZNK6lucene6search18ConstantScoreQuery12extractTermsEPSt3setIPNS_5index4TermENS3_21Term_UnorderedCompareESaIS5_EE
libclucene-core.so.1:_ZNK6lucene6search18ConstantScoreQuery13getObjectNameEv
libclucene-core.so.1:_ZNK6lucene6search18ConstantScoreQuery5cloneEv
libclucene-core.so.1:_ZNK6lucene6search18ConstantScoreQuery6equalsEPNS0_5QueryE
libclucene-core.so.1:_ZNK6lucene6search18ConstantScoreQuery8hashCodeEv
libclucene-core.so.1:_ZNK6lucene6search18ConstantScoreQuery8toStringEPKw
libclucene-core.so.1:_ZNK6lucene6search18ConstantScoreQuery9getFilterEv
libclucene-core.so.1:_ZNK6lucene6search19FieldSortedHitQueue10fillFieldsEPNS0_8FieldDocE
libclucene-core.so.1:_ZNK6lucene6search20CachingWrapperFilter5cloneEv
libclucene-core.so.1:_ZNK6lucene6search23ConstantScoreRangeQuery13getObjectNameEv
libclucene-core.so.1:_ZNK6lucene6search23ConstantScoreRangeQuery5cloneEv
libclucene-core.so.1:_ZNK6lucene6search23ConstantScoreRangeQuery6equalsEPNS0_5QueryE
libclucene-core.so.1:_ZNK6lucene6search23ConstantScoreRangeQuery8hashCodeEv
libclucene-core.so.1:_ZNK6lucene6search23ConstantScoreRangeQuery8toStringEPKw
libclucene-core.so.1:_ZNK6lucene6search4Hits6lengthEv
libclucene-core.so.1:_ZNK6lucene6search4Sort8toStringEv
libclucene-core.so.1:_ZNK6lucene6search5Query12extractTermsEPSt3setIPNS_5index4TermENS3_21Term_UnorderedCompareESaIS5_EE
libclucene-core.so.1:_ZNK6lucene6search5Query12getQueryNameEv
libclucene-core.so.1:_ZNK6lucene6search5Query8getBoostEv
libclucene-core.so.1:_ZNK6lucene6search5Query8toStringEv
libclucene-core.so.1:_ZNK6lucene6search5spans10SpanScorer3docEv
libclucene-core.so.1:_ZNK6lucene6search5spans11SpanOrQuery10getClausesEv
libclucene-core.so.1:_ZNK6lucene6search5spans11SpanOrQuery12extractTermsEPSt3setIPNS_5index4TermENS4_21Term_UnorderedCompareESaIS6_EE
libclucene-core.so.1:_ZNK6lucene6search5spans11SpanOrQuery13getObjectNameEv
libclucene-core.so.1:_ZNK6lucene6search5spans11SpanOrQuery15getClausesCountEv
libclucene-core.so.1:_ZNK6lucene6search5spans11SpanOrQuery16SpanOrQuerySpans8toStringEv
libclucene-core.so.1:_ZNK6lucene6search5spans11SpanOrQuery5cloneEv
libclucene-core.so.1:_ZNK6lucene6search5spans11SpanOrQuery6equalsEPNS0_5QueryE
libclucene-core.so.1:_ZNK6lucene6search5spans11SpanOrQuery8getFieldEv
libclucene-core.so.1:_ZNK6lucene6search5spans11SpanOrQuery8hashCodeEv
libclucene-core.so.1:_ZNK6lucene6search5spans11SpanOrQuery8toStringEPKw
libclucene-core.so.1:_ZNK6lucene6search5spans12SpanNotQuery10getExcludeEv
libclucene-core.so.1:_ZNK6lucene6search5spans12SpanNotQuery10getIncludeEv
libclucene-core.so.1:_ZNK6lucene6search5spans12SpanNotQuery12extractTermsEPSt3setIPNS_5index4TermENS4_21Term_UnorderedCompareESaIS6_EE
libclucene-core.so.1:_ZNK6lucene6search5spans12SpanNotQuery13getObjectNameEv
libclucene-core.so.1:_ZNK6lucene6search5spans12SpanNotQuery17SpanNotQuerySpans8toStringEv
libclucene-core.so.1:_ZNK6lucene6search5spans12SpanNotQuery5cloneEv
libclucene-core.so.1:_ZNK6lucene6search5spans12SpanNotQuery6equalsEPNS0_5QueryE
libclucene-core.so.1:_ZNK6lucene6search5spans12SpanNotQuery8getFieldEv
libclucene-core.so.1:_ZNK6lucene6search5spans12SpanNotQuery8hashCodeEv
libclucene-core.so.1:_ZNK6lucene6search5spans12SpanNotQuery8toStringEPKw
libclucene-core.so.1:_ZNK6lucene6search5spans13SpanNearQuery10getClausesEv
libclucene-core.so.1:_ZNK6lucene6search5spans13SpanNearQuery12extractTermsEPSt3setIPNS_5index4TermENS4_21Term_UnorderedCompareESaIS6_EE
libclucene-core.so.1:_ZNK6lucene6search5spans13SpanNearQuery13getObjectNameEv
libclucene-core.so.1:_ZNK6lucene6search5spans13SpanNearQuery15getClausesCountEv
libclucene-core.so.1:_ZNK6lucene6search5spans13SpanNearQuery5cloneEv
libclucene-core.so.1:_ZNK6lucene6search5spans13SpanNearQuery6equalsEPNS0_5QueryE
libclucene-core.so.1:_ZNK6lucene6search5spans13SpanNearQuery7getSlopEv
libclucene-core.so.1:_ZNK6lucene6search5spans13SpanNearQuery8getFieldEv
libclucene-core.so.1:_ZNK6lucene6search5spans13SpanNearQuery8hashCodeEv
libclucene-core.so.1:_ZNK6lucene6search5spans13SpanNearQuery8toStringEPKw
libclucene-core.so.1:_ZNK6lucene6search5spans13SpanNearQuery9isInOrderEv
libclucene-core.so.1:_ZNK6lucene6search5spans13SpanTermQuery12extractTermsEPSt3setIPNS_5index4TermENS4_21Term_UnorderedCompareESaIS6_EE
libclucene-core.so.1:_ZNK6lucene6search5spans13SpanTermQuery13getObjectNameEv
libclucene-core.so.1:_ZNK6lucene6search5spans13SpanTermQuery5cloneEv
libclucene-core.so.1:_ZNK6lucene6search5spans13SpanTermQuery6equalsEPNS0_5QueryE
libclucene-core.so.1:_ZNK6lucene6search5spans13SpanTermQuery7getTermEb
libclucene-core.so.1:_ZNK6lucene6search5spans13SpanTermQuery8getFieldEv
libclucene-core.so.1:_ZNK6lucene6search5spans13SpanTermQuery8hashCodeEv
libclucene-core.so.1:_ZNK6lucene6search5spans13SpanTermQuery8toStringEPKw
libclucene-core.so.1:_ZNK6lucene6search5spans14SpanFirstQuery12extractTermsEPSt3setIPNS_5index4TermENS4_21Term_UnorderedCompareESaIS6_EE
libclucene-core.so.1:_ZNK6lucene6search5spans14SpanFirstQuery13getObjectNameEv
libclucene-core.so.1:_ZNK6lucene6search5spans14SpanFirstQuery19SpanFirstQuerySpans8toStringEv
libclucene-core.so.1:_ZNK6lucene6search5spans14SpanFirstQuery5cloneEv
libclucene-core.so.1:_ZNK6lucene6search5spans14SpanFirstQuery6equalsEPNS0_5QueryE
libclucene-core.so.1:_ZNK6lucene6search5spans14SpanFirstQuery6getEndEv
libclucene-core.so.1:_ZNK6lucene6search5spans14SpanFirstQuery8getFieldEv
libclucene-core.so.1:_ZNK6lucene6search5spans14SpanFirstQuery8getMatchEv
libclucene-core.so.1:_ZNK6lucene6search5spans14SpanFirstQuery8hashCodeEv
libclucene-core.so.1:_ZNK6lucene6search5spans14SpanFirstQuery8toStringEPKw
libclucene-core.so.1:_ZNK6lucene6search6Scorer13getSimilarityEv
libclucene-core.so.1:_ZNK6lucene6search8Searcher13getObjectNameEv
libclucene-core.so.1:_ZNK6lucene6search9SortField10getFactoryEv
libclucene-core.so.1:_ZNK6lucene6search9SortField10getReverseEv
libclucene-core.so.1:_ZNK6lucene6search9SortField5cloneEv
libclucene-core.so.1:_ZNK6lucene6search9SortField7getTypeEv
libclucene-core.so.1:_ZNK6lucene6search9SortField8getFieldEv
libclucene-core.so.1:_ZNK6lucene6search9SortField8toStringEv
libclucene-core.so.1:_ZNK6lucene6search9TermQuery12extractTermsEPSt3setIPNS_5index4TermENS3_21Term_UnorderedCompareESaIS5_EE
libclucene-core.so.1:_ZNK6lucene6search9TermQuery13getObjectNameEv
libclucene-core.so.1:_ZNK6lucene6search9TermQuery5cloneEv
libclucene-core.so.1:_ZNK6lucene6search9TermQuery6equalsEPNS0_5QueryE
libclucene-core.so.1:_ZNK6lucene6search9TermQuery7getTermEb
libclucene-core.so.1:_ZNK6lucene6search9TermQuery8hashCodeEv
libclucene-core.so.1:_ZNK6lucene6search9TermQuery8toStringEPKw
libclucene-core.so.1:_ZNK6lucene8analysis10StopFilter27getEnablePositionIncrementsEv
libclucene-core.so.1:_ZNK6lucene8analysis13CharTokenizer9normalizeEw
libclucene-core.so.1:_ZNK6lucene8analysis15LetterTokenizer11isTokenCharEw
libclucene-core.so.1:_ZNK6lucene8analysis18LowerCaseTokenizer9normalizeEw
libclucene-core.so.1:_ZNK6lucene8analysis19WhitespaceTokenizer11isTokenCharEw
libclucene-core.so.1:_ZNK6lucene8analysis5Token10termBufferEv
libclucene-core.so.1:_ZNK6lucene8analysis5Token11startOffsetEv
libclucene-core.so.1:_ZNK6lucene8analysis5Token20getPositionIncrementEv
libclucene-core.so.1:_ZNK6lucene8analysis5Token4typeEv
libclucene-core.so.1:_ZNK6lucene8analysis5Token8termTextEv
libclucene-core.so.1:_ZNK6lucene8analysis5Token8toStringEv
libclucene-core.so.1:_ZNK6lucene8analysis5Token9endOffsetEv
libclucene-core.so.1:_ZNK6lucene8document16MapFieldSelector6acceptEPKw
libclucene-core.so.1:_ZNK6lucene8document22LoadFirstFieldSelector6acceptEPKw
libclucene-core.so.1:_ZNK6lucene8document24DocumentFieldEnumeration15hasMoreElementsEv
libclucene-core.so.1:_ZNK6lucene8document5Field11isTokenizedEv
libclucene-core.so.1:_ZNK6lucene8document5Field12getOmitNormsEv
libclucene-core.so.1:_ZNK6lucene8document5Field12isCompressedEv
libclucene-core.so.1:_ZNK6lucene8document5Field13getObjectNameEv
libclucene-core.so.1:_ZNK6lucene8document5Field18isTermVectorStoredEv
libclucene-core.so.1:_ZNK6lucene8document5Field27isStoreOffsetWithTermVectorEv
libclucene-core.so.1:_ZNK6lucene8document5Field29isStorePositionWithTermVectorEv
libclucene-core.so.1:_ZNK6lucene8document5Field4nameEv
libclucene-core.so.1:_ZNK6lucene8document5Field6isLazyEv
libclucene-core.so.1:_ZNK6lucene8document5Field8getBoostEv
libclucene-core.so.1:_ZNK6lucene8document5Field8isBinaryEv
libclucene-core.so.1:_ZNK6lucene8document5Field8isStoredEv
libclucene-core.so.1:_ZNK6lucene8document5Field9isIndexedEv
libclucene-core.so.1:_ZNK6lucene8document8Document3getEPKw
libclucene-core.so.1:_ZNK6lucene8document8Document8getBoostEv
libclucene-core.so.1:_ZNK6lucene8document8Document8getFieldEPKw
libclucene-core.so.1:_ZNK6lucene8document8Document8toStringEv
libclucene-core.so.1:_ZNK6lucene8document8Document9getFieldsEv
libclucene-core.so.1:_ZThn16_N6lucene5store11FSDirectoryD0Ev
libclucene-core.so.1:_ZThn16_N6lucene5store11FSDirectoryD1Ev
libclucene-core.so.1:_ZThn16_N6lucene5store12RAMDirectoryD0Ev
libclucene-core.so.1:_ZThn16_N6lucene5store12RAMDirectoryD1Ev
libclucene-core.so.1:_ZThn16_N6lucene5store9DirectoryD0Ev
libclucene-core.so.1:_ZThn16_N6lucene5store9DirectoryD1Ev
libclucene-core.so.1:_ZThn16_NK6lucene5store11FSDirectory13getObjectNameEv
libclucene-core.so.1:_ZThn16_NK6lucene5store12RAMDirectory13getObjectNameEv
libclucene-core.so.1:_ZThn8_N6lucene4util10FileReaderD0Ev
libclucene-core.so.1:_ZThn8_N6lucene4util10FileReaderD1Ev
libclucene-core.so.1:_ZThn8_N6lucene4util12StringReader13setMinBufSizeEi
libclucene-core.so.1:_ZThn8_N6lucene4util12StringReader5resetEl
libclucene-core.so.1:_ZThn8_N6lucene4util12StringReaderD0Ev
libclucene-core.so.1:_ZThn8_N6lucene4util12StringReaderD1Ev
libclucene-core.so.1:_ZThn8_N6lucene4util13AStringReader13setMinBufSizeEi
libclucene-core.so.1:_ZThn8_N6lucene4util13AStringReader5resetEl
libclucene-core.so.1:_ZThn8_N6lucene4util13AStringReaderD0Ev
libclucene-core.so.1:_ZThn8_N6lucene4util13AStringReaderD1Ev
libclucene-core.so.1:_ZThn8_N6lucene4util15FileInputStream13setMinBufSizeEi
libclucene-core.so.1:_ZThn8_N6lucene4util15FileInputStream5resetEl
libclucene-core.so.1:_ZThn8_N6lucene4util15FileInputStreamD0Ev
libclucene-core.so.1:_ZThn8_N6lucene4util15FileInputStreamD1Ev
libclucene-core.so.1:_ZThn8_N6lucene4util22FilteredBufferedReader13setMinBufSizeEi
libclucene-core.so.1:_ZThn8_N6lucene4util22FilteredBufferedReader5resetEl
libclucene-core.so.1:_ZThn8_N6lucene4util22FilteredBufferedReaderD0Ev
libclucene-core.so.1:_ZThn8_N6lucene4util22FilteredBufferedReaderD1Ev
libclucene-core.so.1:_ZThn8_N6lucene4util23SimpleInputStreamReader13setMinBufSizeEi
libclucene-core.so.1:_ZThn8_N6lucene4util23SimpleInputStreamReader5resetEl
libclucene-core.so.1:_ZThn8_N6lucene4util23SimpleInputStreamReaderD0Ev
libclucene-core.so.1:_ZThn8_N6lucene4util23SimpleInputStreamReaderD1Ev
libclucene-core.so.1:_ZThn8_N6lucene4util27FilteredBufferedInputStream13setMinBufSizeEi
libclucene-core.so.1:_ZThn8_N6lucene4util27FilteredBufferedInputStream5resetEl
libclucene-core.so.1:_ZThn8_N6lucene4util27FilteredBufferedInputStreamD0Ev
libclucene-core.so.1:_ZThn8_N6lucene4util27FilteredBufferedInputStreamD1Ev
libclucene-core.so.1:_ZThn8_N6lucene5index8TermEnumD0Ev
libclucene-core.so.1:_ZThn8_N6lucene5index8TermEnumD1Ev
libclucene-core.so.1:_ZThn8_N6lucene5store10IndexInputD0Ev
libclucene-core.so.1:_ZThn8_N6lucene5store10IndexInputD1Ev
libclucene-core.so.1:_ZThn8_N6lucene5store11FSDirectory12FSIndexInputD0Ev
libclucene-core.so.1:_ZThn8_N6lucene5store11FSDirectory12FSIndexInputD1Ev
libclucene-core.so.1:_ZThn8_N6lucene5store14RAMInputStreamD0Ev
libclucene-core.so.1:_ZThn8_N6lucene5store14RAMInputStreamD1Ev
libclucene-core.so.1:_ZThn8_N6lucene5store18BufferedIndexInputD0Ev
libclucene-core.so.1:_ZThn8_N6lucene5store18BufferedIndexInputD1Ev
libclucene-core.so.1:_ZThn8_N6lucene6search13FuzzyTermEnumD0Ev
libclucene-core.so.1:_ZThn8_N6lucene6search13FuzzyTermEnumD1Ev
libclucene-core.so.1:_ZThn8_N6lucene6search16FilteredTermEnumD0Ev
libclucene-core.so.1:_ZThn8_N6lucene6search16FilteredTermEnumD1Ev
libclucene-core.so.1:_ZThn8_N6lucene6search16WildcardTermEnumD0Ev
libclucene-core.so.1:_ZThn8_N6lucene6search16WildcardTermEnumD1Ev
libclucene-core.so.1:_ZThn8_NK6lucene5store14RAMInputStream13getObjectNameEv
libclucene-core.so.1:_ZThn8_NK6lucene6search13FuzzyTermEnum13getObjectNameEv
libclucene-core.so.1:_ZThn8_NK6lucene6search16WildcardTermEnum13getObjectNameEv
libclucene-core.so.1:_ZTv0_n24_N6lucene5index13TermPositionsD0Ev
libclucene-core.so.1:_ZTv0_n24_N6lucene5index13TermPositionsD1Ev
libclucene-core.so.1:_ZTv0_n24_N6lucene5index21MultipleTermPositionsD0Ev
libclucene-core.so.1:_ZTv0_n24_N6lucene5index21MultipleTermPositionsD1Ev
libclucene-core.so.1:_ZTv0_n32_N6lucene5index21MultipleTermPositions4seekEPNS0_4TermE
libclucene-core.so.1:_ZTv0_n40_N6lucene5index21MultipleTermPositions4seekEPNS0_8TermEnumE
libclucene-core.so.1:_ZTv0_n48_NK6lucene5index21MultipleTermPositions3docEv
libclucene-core.so.1:_ZTv0_n56_NK6lucene5index21MultipleTermPositions4freqEv
libclucene-core.so.1:_ZTv0_n64_N6lucene5index21MultipleTermPositions4nextEv
libclucene-core.so.1:_ZTv0_n72_N6lucene5index21MultipleTermPositions4readEPiS2_i
libclucene-core.so.1:_ZTv0_n80_N6lucene5index21MultipleTermPositions6skipToEi
libclucene-core.so.1:_ZTv0_n88_N6lucene5index21MultipleTermPositions5closeEv
libclucene-core.so.1:_ZTv0_n96_N6lucene5index21MultipleTermPositions17__asTermPositionsEv
libclucene-shared.so.1:_Z10cl_isalnumm
libclucene-shared.so.1:_Z10cl_isdigitm
libclucene-shared.so.1:_Z10cl_isspacem
libclucene-shared.so.1:_Z10cl_tolowerw
libclucene-shared.so.1:_Z10cl_toupperw
libclucene-shared.so.1:_Z11cl_isletterm
libclucene-shared.so.1:_Z13lucene_i64totlPwi
libclucene-shared.so.1:_Z13lucene_tcslwrPw
libclucene-shared.so.1:_Z14cl_tcscasefoldPwi
libclucene-shared.so.1:_Z14lucene_wprintfPKwz
libclucene-shared.so.1:_Z15lucene_utf8towcRwPKc
libclucene-shared.so.1:_Z15lucene_wctoutf8Pcw
libclucene-shared.so.1:_Z16lucene_snwprintfPwmPKwz
libclucene-shared.so.1:_Z16lucene_utf8towcsPwPKcm
libclucene-shared.so.1:_Z16lucene_wcstoutf8PcPKwm
libclucene-shared.so.1:_Z17__cnd_FormatDebugPKciiS0_i
libclucene-shared.so.1:_Z17cl_tcscasefoldcmpPKwS0_
libclucene-shared.so.1:_Z17lucene_tcscasecmpPKwS0_
libclucene-shared.so.1:_Z17lucene_vsnwprintfPwmPKwRA1_13__va_list_tag
libclucene-shared.so.1:_Z18lucene_utf8charlenh
libclucene-shared.so.1:_Z22lucene_wcstoutf8stringB5cxx11PKwm
libclucene-shared.so.1:_ZN6lucene4util10mutexGuardC1ERKS1_
libclucene-shared.so.1:_ZN6lucene4util10mutexGuardC1ERNS0_12mutex_threadE
libclucene-shared.so.1:_ZN6lucene4util10mutexGuardC2ERKS1_
libclucene-shared.so.1:_ZN6lucene4util10mutexGuardC2ERNS0_12mutex_threadE
libclucene-shared.so.1:_ZN6lucene4util10mutexGuardD1Ev
libclucene-shared.so.1:_ZN6lucene4util10mutexGuardD2Ev
libclucene-shared.so.1:_ZN6lucene4util12StringBuffer10appendBoolEb
libclucene-shared.so.1:_ZN6lucene4util12StringBuffer10appendCharEw
libclucene-shared.so.1:_ZN6lucene4util12StringBuffer10giveBufferEv
libclucene-shared.so.1:_ZN6lucene4util12StringBuffer10growBufferEmm
libclucene-shared.so.1:_ZN6lucene4util12StringBuffer11appendBoostEf
libclucene-shared.so.1:_ZN6lucene4util12StringBuffer11appendFloatEfm
libclucene-shared.so.1:_ZN6lucene4util12StringBuffer11deleteCharsEmm
libclucene-shared.so.1:_ZN6lucene4util12StringBuffer12deleteCharAtEm
libclucene-shared.so.1:_ZN6lucene4util12StringBuffer5clearEv
libclucene-shared.so.1:_ZN6lucene4util12StringBuffer6appendEPKw
libclucene-shared.so.1:_ZN6lucene4util12StringBuffer6appendEPKwm
libclucene-shared.so.1:_ZN6lucene4util12StringBuffer6charAtEm
libclucene-shared.so.1:_ZN6lucene4util12StringBuffer6insertEmPKwm
libclucene-shared.so.1:_ZN6lucene4util12StringBuffer6insertEmw
libclucene-shared.so.1:_ZN6lucene4util12StringBuffer7prependEPKw
libclucene-shared.so.1:_ZN6lucene4util12StringBuffer7prependEPKwm
libclucene-shared.so.1:_ZN6lucene4util12StringBuffer7reserveEm
libclucene-shared.so.1:_ZN6lucene4util12StringBuffer7toLowerEv
libclucene-shared.so.1:_ZN6lucene4util12StringBuffer8toStringEv
libclucene-shared.so.1:_ZN6lucene4util12StringBuffer9appendIntEli
libclucene-shared.so.1:_ZN6lucene4util12StringBuffer9getBufferEv
libclucene-shared.so.1:_ZN6lucene4util12StringBuffer9setCharAtEmw
libclucene-shared.so.1:_ZN6lucene4util12StringBufferC1EPKw
libclucene-shared.so.1:_ZN6lucene4util12StringBufferC1EPwmb
libclucene-shared.so.1:_ZN6lucene4util12StringBufferC1Em
libclucene-shared.so.1:_ZN6lucene4util12StringBufferC1Ev
libclucene-shared.so.1:_ZN6lucene4util12StringBufferC2EPKw
libclucene-shared.so.1:_ZN6lucene4util12StringBufferC2EPwmb
libclucene-shared.so.1:_ZN6lucene4util12StringBufferC2Em
libclucene-shared.so.1:_ZN6lucene4util12StringBufferC2Ev
libclucene-shared.so.1:_ZN6lucene4util12StringBufferD0Ev
libclucene-shared.so.1:_ZN6lucene4util12StringBufferD1Ev
libclucene-shared.so.1:_ZN6lucene4util12StringBufferD2Ev
libclucene-shared.so.1:_ZN6lucene4util12mutex_thread10JoinThreadEm
libclucene-shared.so.1:_ZN6lucene4util12mutex_thread12CreateThreadEPFPvS2_ES2_
libclucene-shared.so.1:_ZN6lucene4util12mutex_thread19_GetCurrentThreadIdEv
libclucene-shared.so.1:_ZN6lucene4util12mutex_thread4lockEv
libclucene-shared.so.1:_ZN6lucene4util12mutex_thread6unlockEv
libclucene-shared.so.1:_ZN6lucene4util12mutex_threadC1ERKS1_
libclucene-shared.so.1:_ZN6lucene4util12mutex_threadC1Ev
libclucene-shared.so.1:_ZN6lucene4util12mutex_threadC2ERKS1_
libclucene-shared.so.1:_ZN6lucene4util12mutex_threadC2Ev
libclucene-shared.so.1:_ZN6lucene4util12mutex_threadD1Ev
libclucene-shared.so.1:_ZN6lucene4util12mutex_threadD2Ev
libclucene-shared.so.1:_ZN6lucene4util14atomic_threads16atomic_decrementEPj
libclucene-shared.so.1:_ZN6lucene4util14atomic_threads16atomic_incrementEPj
libclucene-shared.so.1:_ZN6lucene4util16shared_condition4WaitEPNS0_12mutex_threadE
libclucene-shared.so.1:_ZN6lucene4util16shared_condition9NotifyAllEv
libclucene-shared.so.1:_ZN6lucene4util16shared_conditionC1Ev
libclucene-shared.so.1:_ZN6lucene4util16shared_conditionC2Ev
libclucene-shared.so.1:_ZN6lucene4util16shared_conditionD1Ev
libclucene-shared.so.1:_ZN6lucene4util16shared_conditionD2Ev
libclucene-shared.so.1:_ZN6lucene4util4Misc10dir_ExistsEPKc
libclucene-shared.so.1:_ZN6lucene4util4Misc10filelengthEi
libclucene-shared.so.1:_ZN6lucene4util4Misc10longToBaseEliPc
libclucene-shared.so.1:_ZN6lucene4util4Misc10stringTrimEPw
libclucene-shared.so.1:_ZN6lucene4util4Misc11_charToWideEPKc
libclucene-shared.so.1:_ZN6lucene4util4Misc11_wideToCharEPKw
libclucene-shared.so.1:_ZN6lucene4util4Misc11file_UnlinkEPKci
libclucene-shared.so.1:_ZN6lucene4util4Misc11replace_allEPKwS3_S3_
libclucene-shared.so.1:_ZN6lucene4util4Misc11segmentnameB5cxx11EPKcS3_i
libclucene-shared.so.1:_ZN6lucene4util4Misc11segmentnameEPciPKcS4_i
libclucene-shared.so.1:_ZN6lucene4util4Misc12base36ToLongEPKc
libclucene-shared.so.1:_ZN6lucene4util4Misc13priv_isDotDirEPKw
libclucene-shared.so.1:_ZN6lucene4util4Misc14_cpycharToWideEPKcPwm
libclucene-shared.so.1:_ZN6lucene4util4Misc14_cpywideToCharEPKwPcm
libclucene-shared.so.1:_ZN6lucene4util4Misc16stringDifferenceEPKwiS3_i
libclucene-shared.so.1:_ZN6lucene4util4Misc17currentTimeMillisEv
libclucene-shared.so.1:_ZN6lucene4util4Misc4joinEPKwS3_S3_S3_S3_S3_
libclucene-shared.so.1:_ZN6lucene4util4Misc4zerrEiRNSt7__cxx1112basic_stringIcSt11char_traitsIcESaIcEEE
libclucene-shared.so.1:_ZN6lucene4util4Misc5ajoinEPKcS3_S3_S3_S3_S3_
libclucene-shared.so.1:_ZN6lucene4util4Misc5sleepEi
libclucene-shared.so.1:_ZN6lucene4util4Misc7deflateEPKhmRSoRNSt7__cxx1112basic_stringIcSt11char_traitsIcESaIcEEEii
libclucene-shared.so.1:_ZN6lucene4util4Misc7inflateEPKhmRSoRNSt7__cxx1112basic_stringIcSt11char_traitsIcESaIcEEEi
libclucene-shared.so.1:_ZN6lucene4util4Misc8toStringB5cxx11EPKwi
libclucene-shared.so.1:_ZN6lucene4util4Misc8toStringB5cxx11Eb
libclucene-shared.so.1:_ZN6lucene4util4Misc8toStringB5cxx11Ef
libclucene-shared.so.1:_ZN6lucene4util4Misc8toStringB5cxx11Ei
libclucene-shared.so.1:_ZN6lucene4util4Misc8toStringB5cxx11El
libclucene-shared.so.1:_ZN6lucene4util4Misc8toStringB5cxx11Em
libclucene-shared.so.1:_ZN6lucene4util4Misc8wordTrimEPw
libclucene-shared.so.1:_ZN6lucene4util4Misc9ahashCodeEPKc
libclucene-shared.so.1:_ZN6lucene4util4Misc9ahashCodeEPKcm
libclucene-shared.so.1:_ZN6lucene4util4Misc9file_SizeEPKc
libclucene-shared.so.1:_ZN6lucene4util4Misc9listFilesEPKcRSt6vectorINSt7__cxx1112basic_stringIcSt11char_traitsIcESaIcEEESaISA_EEb
libclucene-shared.so.1:_ZN6lucene4util4Misc9whashCodeEPKw
libclucene-shared.so.1:_ZN6lucene4util4Misc9whashCodeEPKwm
libclucene-shared.so.1:_ZNK6lucene4util12StringBuffer15substringEqualsEmmPKwm
libclucene-shared.so.1:_ZNK6lucene4util12StringBuffer6lengthEv
